(lp0
(dp1
S'link'
p2
S'http://www.nytimes.com/slideshow/2010/08/04/magazine/20100815-dump.html'
p3
sS'pubDate'
p4
cdatetime
datetime
p5
(S'\x07\xda\x08\r\x15\x05\x04\x0c\xa9\x10'
p6
tp7
Rp8
sS'title'
p9
S'A Global Graveyard for Dead Computers in Ghana - Slide Show - NYTimes.com'
p10
sa(dp11
S'link'
p12
S'http://blog.wolfram.com/2010/08/13/25-best-hangman-words/'
p13
sS'pubDate'
p14
g5
(S'\x07\xda\x08\r\x13\x05\x05\x02\x9c>'
p15
tp16
Rp17
sS'title'
p18
S'Wolfram Blog : 25 Best Hangman Words'
p19
sa(dp20
g12
S'http://videogames.yahoo.com/events/plugged-in/study-uncovers-every-possible-rubik-s-cube-solution/1407748'
p21
sg14
g5
(S'\x07\xda\x08\r\x13\x05\x05\x02\x9b\xfa'
p22
tp23
Rp24
sg18
S"Study uncovers every possible Rubik's Cube solution - Plugged In - Yahoo! Games"
p25
sa(dp26
g12
S'http://www.monocubed.com/?p=549'
p27
sg14
g5
(S'\x07\xda\x08\r\x13\x05\x05\x02\x9by'
p28
tp29
Rp30
sg18
S'~ Monocubed ~'
p31
sa(dp32
S'link'
p33
S'http://superdragstore.co.uk/buy/cialis/online'
p34
sS'pubDate'
p35
g5
(S'\x07\xda\x08\r\x12\x05\x04\x07\xb6\xd8'
p36
tp37
Rp38
sS'title'
p39
S'Buy Generic Cialis online in Super drug store: (Tadalafil 10/20mg) \xa3\xa00.84 Per Pill'
p40
sa(dp41
g33
S'http://gizmodo.com/5612145/'
p42
sg35
g5
(S'\x07\xda\x08\r\x12\x05\x04\x07\xb6;'
p43
tp44
Rp45
sg39
S'How a 16-yo Kid Made His First Million Dollars Following His Hero, Steve Jobs'
p46
sa(dp47
g33
S'http://php-ru.info/servis/39t'
p48
sg35
g5
(S'\x07\xda\x08\r\x12\x05\x04\x07\xb5;'
p49
tp50
Rp51
sg39
S'Play Free Online Flash Strategy Games - Airport Madness 3'
p52
sa(dp53
g33
S'http://www.zeldman.com/2010/08/13/how-to-use-textmate/'
p54
sg35
g5
(S'\x07\xda\x08\r\x12\x05\x04\x07\xb4\xb8'
p55
tp56
Rp57
sg39
S'How to use TextMate ? Jeffrey Zeldman Presents The Daily Report'
p58
sa(dp59
g33
S'http://www.ecrans.fr/Dans-ce-rapport-ce-qui-saute-aux,10599.html'
p60
sg35
g5
(S'\x07\xda\x08\r\x12\x05\x04\x07\xb4h'
p61
tp62
Rp63
sg39
S'\xab Dans ce rapport, ce qui saute aux yeux, c?est l?incomp\xe9tence \xbb- Ecrans'
p64
sa(dp65
g33
S'http://www.primarycss.com/'
p66
sg35
g5
(S'\x07\xda\x08\r\x12\x05\x04\x07\xb3\xd8'
p67
tp68
Rp69
sg39
S'http://www.primarycss.com/'
p70
sa(dp71
g33
S'http://www.apartmenttherapy.com/sf/house-tours/four-people-and-a-dog-living-in-180-square-feet-home-away-from-home-tour-123518'
p72
sg35
g5
(S'\x07\xda\x08\r\x12\x05\x04\x07\xb3\x97'
p73
tp74
Rp75
sg39
S'Four People (and a Dog) Living in 180 Square Feet House Tour | Apartment Therapy San Francisco'
p76
sa(dp77
g33
S'http://latesttechworld.com/2010/08/top-10-google-chrome-extensions-for-better-seo-results/'
p78
sg35
g5
(S'\x07\xda\x08\r\x12\x05\x04\x07\xb3\t'
p79
tp80
Rp81
sg39
S'Top 10 SEO Extensions For Google Chrome | LATEST TECH WORLD'
p82
sa(dp83
S'link'
p84
S'http://jquerymobile.com/'
p85
sS'pubDate'
p86
g5
(S'\x07\xda\x08\r\x11\x05\x05\x00\x91\x7f'
p87
tp88
Rp89
sS'title'
p90
S'jQuery Mobile | jQuery Mobile'
p91
sa(dp92
g84
S'http://superdragstore.co.uk/'
p93
sg86
g5
(S'\x07\xda\x08\r\x11\x05\x05\x00\x91\x17'
p94
tp95
Rp96
sg90
S'Viagra buy generic viagra online best price'
p97
sa(dp98
g84
S'http://www.youtube.com/watch?v=2VjkMZVulno&feature=related'
p99
sg86
g5
(S'\x07\xda\x08\r\x11\x05\x05\x00\x90\xa7'
p100
tp101
Rp102
sg90
S'Ladies Of Love @ The Hard Rock Cafe LIVE'
p103
sa(dp104
g84
S'http://www.youtube.com/watch?v=YoxZssZf1MY&feature=related'
p105
sg86
g5
(S'\x07\xda\x08\r\x11\x05\x05\x00\x90\x0f'
p106
tp107
Rp108
sg90
S'Red Dress @ The HArd Rock Cafe LIVE'
p109
sa(dp110
g84
S'http://www.txcn.com/sharedcontent/dws/news/localnews/tv/stories/DN-found_09met.ART.State.Edition1.295a9ba.html'
p111
sg86
g5
(S'\x07\xda\x08\r\x11\x05\x05\x00\x8f\xcc'
p112
tp113
Rp114
sg90
S'After writing song about missing children, man learned he was one ...'
p115
sa(dp116
g84
S'http://www.youtube.com/watch?v=P91-Cdkzjo0'
p117
sg86
g5
(S'\x07\xda\x08\r\x11\x05\x05\x00\x8f\x89'
p118
tp119
Rp120
sg90
S'Better I @ The Hard Rock Cafe LIVE'
p121
sa(dp122
g84
S'http://www.youtube.com/watch?v=sVIxSnMo4MI&feature=related'
p123
sg86
g5
(S'\x07\xda\x08\r\x11\x05\x05\x00\x8f>'
p124
tp125
Rp126
sg90
S'Walk on By @ The Hard Rock Cafe LIVE'
p127
sa(dp128
g84
S'http://www.youtube.com/watch?v=jvN3GrMftaY'
p129
sg86
g5
(S'\x07\xda\x08\r\x11\x05\x05\x00\x8f\x01'
p130
tp131
Rp132
sg90
S'Maurice Davis Band Coffeehouse Jam Video'
p133
sa(dp134
g84
S'http://www.youtube.com/watch?v=eeX9A-bPUJ8&feature=related'
p135
sg86
g5
(S'\x07\xda\x08\r\x11\x05\x05\x00\x8eg'
p136
tp137
Rp138
sg90
S'Nobodys Fool @ The Hard Rock Cafe LIVE'
p139
sa(dp140
g84
S'http://catastrophemonitor.com/public_html/article.php?story=20100813113902772'
p141
sg86
g5
(S'\x07\xda\x08\r\x11\x05\x05\x00\x8d\xe0'
p142
tp143
Rp144
sg90
S'Hundreds evacuated after flooding in Iowa'
p145
sa(dp146
g84
S'http://www.wfaa.com/home/Musician-who-wrote-song-about-missing-children-finds-out-he-was-abducted-96990754.html'
p147
sg86
g5
(S'\x07\xda\x08\r\x11\x05\x05\x00\x8d\x8e'
p148
tp149
Rp150
sg90
S'Musician who wrote song about missing children finds out he was ...'
p151
sa(dp152
g84
S'http://www.thebuzzardrocks.com/new2/artists/i/138902'
p153
sg86
g5
(S'\x07\xda\x08\r\x11\x05\x05\x00\x8d\x17'
p154
tp155
Rp156
sg90
S'Check out MDB'
p157
sa(dp158
g84
S'http://www.theuxbookmark.com/2010/08/interaction-design/a-monster-list-of-ui-guidelines-style-guides'
p159
sg86
g5
(S'\x07\xda\x08\r\x11\x05\x05\x00\x8c\xb1'
p160
tp161
Rp162
sg90
S'A huge list of Style Guides and UI Guidelines \xbb The UX Bookmark'
p163
sa(dp164
g84
S'http://jquerymobile.com/2010/08/announcing-the-jquery-mobile-project/'
p165
sg86
g5
(S'\x07\xda\x08\r\x11\x05\x05\x00\x8cd'
p166
tp167
Rp168
sg90
S'Announcing the jQuery Mobile Project | jQuery Mobile'
p169
sa(dp170
S'link'
p171
S'http://wonderfl.net/c/iNy0/fullscreen'
p172
sS'pubDate'
p173
g5
(S'\x07\xda\x08\r\x10\x05\x04\x04\\\x01'
p174
tp175
Rp176
sS'title'
p177
S'Sketch of Voronoi | wonderfl build flash online'
p178
sa(dp179
g171
S'http://www.seattle20.com/blog/Hey-Guys-It-s-Totally-Okay-If-You-Don-t-Get-Rich.aspx'
p180
sg173
g5
(S'\x07\xda\x08\r\x10\x05\x04\x04[A'
p181
tp182
Rp183
sg177
S"Hey, Guys, It's Totally Okay If You Don't Get Rich"
p184
sa(dp185
g171
S'http://stackoverflow.com/questions/1995113/'
p186
sg173
g5
(S'\x07\xda\x08\r\x10\x05\x04\x04Z\x86'
p187
tp188
Rp189
sg177
S'Strangest language feature - Stack Overflow'
p190
sa(dp191
g171
S'http://oddlybizarre.com/'
p192
sg173
g5
(S'\x07\xda\x08\r\x10\x05\x04\x04Y\x98'
p193
tp194
Rp195
sg177
S'Bizarre Stuff | Oddly Crazy | OddlyBizarre.com'
p196
sa(dp197
S'link'
p198
S'http://www.gadgetcage.com/2010/08/the-most-powerful-social-networking-sitecomparision.html'
p199
sS'pubDate'
p200
g5
(S'\x07\xda\x08\r\x0f\x05\x04\r \x13'
p201
tp202
Rp203
sS'title'
p204
S'The Most Powerful Social Networking Site(Comparision)'
p205
sa(dp206
g198
S'http://www.clickz.com/clickz/news/1727824/the-best-worst-campaign-deals-foursquares-turf?WT.rss_f=News+-+ClickZ&WT.rss_a=The+Best+and+Worst+Campaign+Deals+on+Foursquare%27s+Turf+&utm_source=feedburner&utm_medium=feed&utm_campaign=Feed%3A+clickz+%28ClickZ+News%29'
p207
sg200
g5
(S'\x07\xda\x08\r\x0f\x05\x04\r\x1f\xc9'
p208
tp209
Rp210
sg204
S"The Best and Worst Campaign Deals on Foursquare's Turf | ClickZ"
p211
sa(dp212
g198
S'http://branchr.com/'
p213
sg200
g5
(S'\x07\xda\x08\r\x0f\x05\x04\r\x1e\xe7'
p214
tp215
Rp216
sg204
S'Branchr'
p217
sa(dp218
g198
S'http://www.zencollegelife.com/15-online-resources-to-learn-english-as-a-second-language/'
p219
sg200
g5
(S'\x07\xda\x08\r\x0f\x05\x04\r\x1d\xfb'
p220
tp221
Rp222
sg204
S'15 Online Resources to Learn English as a Second Language'
p223
sa(dp224
g198
S'http://find-the-lawyer.com/2010/08/the-most-expensive-lawyer-in-the-usa/'
p225
sg200
g5
(S'\x07\xda\x08\r\x0f\x05\x04\r\x1d_'
p226
tp227
Rp228
sg204
S'The Most Expensive Lawyer in the USA'
p229
sa(dp230
g198
S'http://mashable.com/2010/08/13/open311-apps/'
p231
sg200
g5
(S'\x07\xda\x08\r\x0f\x05\x04\r\x1d\x17'
p232
tp233
Rp234
sg204
S'5 Open Data Apps That Are Improving Our Cities'
p235
sa(dp236
g198
S'http://gizmodo.com/5612145/how-a-16+yo-kid-made-his-first-million-dollars-following-his-hero-steve-jobs'
p237
sg200
g5
(S'\x07\xda\x08\r\x0f\x05\x04\r\x1c\xc7'
p238
tp239
Rp240
sg204
S'How a 16-yo Kid Made His First Million Dollars Following His Hero, Steve Jobs'
p241
sa(dp242
S'link'
p243
S'http://www.schoolgrantsblog.com/school-grants-infographic/'
p244
sS'pubDate'
p245
g5
(S'\x07\xda\x08\r\x0e\x05\x04\x0e\xf5\x95'
p246
tp247
Rp248
sS'title'
p249
S'A look at School Grants in USA'
p250
sa(dp251
g243
S'http://www.socialmediaexaminer.com/using-social-media-to-inspire-your-writing'
p252
sg245
g5
(S'\x07\xda\x08\r\x0e\x05\x04\x0e\xf4\xd0'
p253
tp254
Rp255
sg249
S'9 Ways to Use Social Media to Inspire Your Writing | Social Media Examiner'
p256
sa(dp257
g243
S'http://probertson.livejournal.com/33796.html'
p258
sg245
g5
(S'\x07\xda\x08\r\x0e\x05\x04\x0e\xf3\xee'
p259
tp260
Rp261
sg249
S'probertson: Scott Pilgrim vs. the World: The Game'
p262
sa(dp263
g243
S'http://www.ufc.com/news/Hail-To-Chael-Honoring-Most-Unlucky-Fighter'
p264
sg245
g5
(S'\x07\xda\x08\r\x0e\x05\x04\x0e\xf3t'
p265
tp266
Rp267
sg249
S'Hael To Chael'
p268
sa(dp269
g243
S'http://www.macworld.com/article/153134/2010/08/25safariextensions.html'
p270
sg245
g5
(S'\x07\xda\x08\r\x0e\x05\x04\x0e\xf2\xf0'
p271
tp272
Rp273
sg249
S'Get 25 great Safari extensions | Browsers & Add-Ons | MacUser | Macworld'
p274
sa(dp275
g243
S'http://www.whooknoo.com/seasonal-gifts/12-hilarious-and-crazy-radar-stories/'
p276
sg245
g5
(S'\x07\xda\x08\r\x0e\x05\x04\x0e\xf2\xb5'
p277
tp278
Rp279
sg249
S"12 Hilarious and Crazy Radar Stories | WhooKnoo: Stuff You Didn't Really Need to Know"
p280
sa(dp281
g243
S'http://tirania.org/blog/archive/2010/Aug-13.html'
p282
sg245
g5
(S'\x07\xda\x08\r\x0e\x05\x04\x0e\xf2k'
p283
tp284
Rp285
sg249
S'Initial Thoughts on Oracle vs Google Patent Lawsuit - Miguel de Icaza'
p286
sa(dp287
g243
S'http://hotnewshome.com/entertainment/celebrities-most-awkward-sex-scenes-according-to-them.html'
p288
sg245
g5
(S'\x07\xda\x08\r\x0e\x05\x04\x0e\xf1\xe0'
p289
tp290
Rp291
sg249
S'Celebrities Most Awkward Sex Scenes According To Them'
p292
sa(dp293
S'link'
p294
S'http://smashinghub.com/the-creative-and-comical-robots-pictures-work-of-chris-mcveigh.htm'
p295
sS'pubDate'
p296
g5
(S'\x07\xda\x08\r\r\x05\x04\nA9'
p297
tp298
Rp299
sS'title'
p300
S'The+Creative+and+Comical+Robots+Pictures+Work+of+Chris+McVeigh'
p301
sa(dp302
g294
S'http://www.dzinepress.com/2010/08/call-to-action-brochure-designing/'
p303
sg296
g5
(S'\x07\xda\x08\r\r\x05\x04\n@\x99'
p304
tp305
Rp306
sg300
S'Call-to-Action Brochure Designing | Dzinepress'
p307
sa(dp308
g294
S'http://www.scribd.com/doc/35836865/Jonah-Peretti-Viral-Meetup-Talk'
p309
sg296
g5
(S'\x07\xda\x08\r\r\x05\x04\n?\xd6'
p310
tp311
Rp312
sg300
S'Jonah Peretti Viral Meetup Talk'
p313
sa(dp314
g294
S'http://celestinechua.com/blog/whats-on-your-bucket-list-101-things-to-do-before-you-die/'
p315
sg296
g5
(S'\x07\xda\x08\r\r\x05\x04\n?\x89'
p316
tp317
Rp318
sg300
S"What's On Your Bucket List? 101 Things To Do Before You Die"
p319
sa(dp320
g294
S'http://css-tricks.com/slide-to-unlock/'
p321
sg296
g5
(S'\x07\xda\x08\r\r\x05\x04\n?,'
p322
tp323
Rp324
sg300
S'iPhone ?slide to unlock? Text in WebKit/CSS3 | CSS-Tricks'
p325
sa(dp326
g294
S'http://nflinjury.com/the-mcfly-scheme-time-travel-sports-betting.html'
p327
sg296
g5
(S'\x07\xda\x08\r\r\x05\x04\n>\x9c'
p328
tp329
Rp330
sg300
S'The McFly Scheme: Time Travel Betting'
p331
sa(dp332
g294
S'http://net.tutsplus.com/tutorials/html-css-techniques/subtle-css3-typography-that-youd-swear-was-made-in-photoshop/'
p333
sg296
g5
(S'\x07\xda\x08\r\r\x05\x04\n=\x8d'
p334
tp335
Rp336
sg300
S'Subtle CSS3 Typography that you?d Swear was Made in Photoshop | Nettuts+'
p337
sa(dp338
S'link'
p339
S'http://alltechnoblog.com/how-social-engagement-is-changing-infographic/'
p340
sS'pubDate'
p341
g5
(S'\x07\xda\x08\r\x0c\x05\x04\rk\t'
p342
tp343
Rp344
sS'title'
p345
S'How Social Engagement is Changing [INFOGRAPHIC]..'
p346
sa(dp347
g339
S'http://slodive.com/inspiration/showcase/40-best-customized-iphone-websites/'
p348
sg341
g5
(S'\x07\xda\x08\r\x0c\x05\x04\rj\xad'
p349
tp350
Rp351
sg345
S'40 Best Customized iPhone Websites'
p352
sa(dp353
g339
S'http://www.freenew.net/index.html#none'
p354
sg341
g5
(S'\x07\xda\x08\r\x0c\x05\x04\r\x1fP'
p355
tp356
Rp357
sg345
S'FreeApps Download, All Must-have Free Apps in One Click | FreeNew'
p358
sa(dp359
g339
S'http://techcrunch.com/2010/08/13/five-viral-rules-video/'
p360
sg341
g5
(S'\x07\xda\x08\r\x0c\x05\x04\r\x1e\xf7'
p361
tp362
Rp363
sg345
S'Five Rules For How To Make Things Go Viral (TCTV)'
p364
sa(dp365
g339
S'http://www.socialmediaexaminer.com/using-social-media-to-inspire-your-writing/'
p366
sg341
g5
(S'\x07\xda\x08\r\x0c\x05\x04\r\x1e\xc4'
p367
tp368
Rp369
sg345
S'9 Ways to Use Social Media to Inspire Your Writing | Social Media Examiner'
p370
sa(dp371
g339
S'http://finance.yahoo.com/news/How-to-Retire-Comfortably-for-usnews-2643852806.html?x=0'
p372
sg341
g5
(S'\x07\xda\x08\r\x0c\x05\x04\r\x1e\x88'
p373
tp374
Rp375
sg345
S'How to Retire Comfortably for Under $1,500 a Month - Yahoo! Finance'
p376
sa(dp377
g339
S'http://www.theinsuranceqoutes.com/2010/best-car-insurance-tips-for-drivers.html'
p378
sg341
g5
(S'\x07\xda\x08\r\x0c\x05\x04\r\x1e!'
p379
tp380
Rp381
sg345
S'Best Car Insurance Tips For Drivers'
p382
sa(dp383
g339
S'http://articles.moneycentral.msn.com/SavingandDebt/SaveMoney/5FoodsItsCheaperToGrow.aspx'
p384
sg341
g5
(S'\x07\xda\x08\r\x0c\x05\x04\r\x1d\xd3'
p385
tp386
Rp387
sg345
S"5 foods it's cheaper to grow - MSN Money"
p388
sa(dp389
g339
S'http://labs.unoh.net/2010/08/how-to-collect-queries-for-tuning-mysql.html'
p390
sg341
g5
(S'\x07\xda\x08\r\x0c\x05\x04\r\x1d"'
p391
tp392
Rp393
sg345
S'????? Unoh Labs: MySQL??????????????????'
p394
sa(dp395
g339
S'http://www.readwriteweb.com/archives/facebook_launching_official_live_streaming_channel_facebook_live.php'
p396
sg341
g5
(S'\x07\xda\x08\r\x0c\x05\x04\r\x1c\xc4'
p397
tp398
Rp399
sg345
S'Facebook Launching Official Live Streaming Channel: Facebook Live'
p400
sa(dp401
g339
S'http://naldzgraphics.net/giveaways/premium-wordpress-theme-giveaway-from-press75/'
p402
sg341
g5
(S'\x07\xda\x08\r\x0c\x05\x04\r\x1c\x90'
p403
tp404
Rp405
sg345
S'Premium WordPress Theme Giveaway from Press75'
p406
sa(dp407
g339
S'http://mashable.com/2010/08/13/great-corporate-blogs/'
p408
sg341
g5
(S'\x07\xda\x08\r\x0c\x05\x04\r\x1cJ'
p409
tp410
Rp411
sg345
S'15 Excellent Corporate Blogs to Learn From'
p412
sa(dp413
g339
S'http://www.theuxbookmark.com/2010/08/interaction-design/a-monster-list-of-ui-guidelines-style-guides/'
p414
sg341
g5
(S'\x07\xda\x08\r\x0c\x05\x04\r\x1b='
p415
tp416
Rp417
sg345
S'A huge list of Style Guides and UI Guidelines \xbb The UX Bookmark'
p418
sa(dp419
g339
S'http://www.simplyzesty.com/social-media/internet-subwaytube-map/'
p420
sg341
g5
(S'\x07\xda\x08\r\x0c\x05\x04\r\x1b\x02'
p421
tp422
Rp423
sg345
S'What the internet would look like as an underground map'
p424
sa(dp425
g339
S'http://www.dachisgroup.com/2010/08/the-2010-social-business-landscape/'
p426
sg341
g5
(S'\x07\xda\x08\r\x0c\x05\x04\r\x1a\xcc'
p427
tp428
Rp429
sg345
S'The 2010 Social Business Landscape \xab Dachis Group Collaboratory'
p430
sa(dp431
g339
S'http://www.sharetechno.com/nokia-5800-xpressmusic-touchscreen-smartphone/'
p432
sg341
g5
(S'\x07\xda\x08\r\x0c\x05\x04\r\x1aX'
p433
tp434
Rp435
sg345
S'Nokia 5800 XpressMusic TouchScreen SmartPhone'
p436
sa(dp437
g339
S'http://www.madrasgeek.com/2010/07/ultimate-twitter-resources.html'
p438
sg341
g5
(S'\x07\xda\x08\r\x0c\x05\x04\r\x1a\x14'
p439
tp440
Rp441
sg345
S'170+ Twitter Apps, Tools, Tips and Guides [Ultimate Twitter Resources]'
p442
sa(dp443
g339
S'http://tech.blorge.com/Structure:%20/2010/08/11/top-40-best-free-legal-movies-you-can-download-right-now/'
p444
sg341
g5
(S'\x07\xda\x08\r\x0c\x05\x04\r\x19\xc8'
p445
tp446
Rp447
sg345
S'Top 40 best free legal movies you can download right now - TECH.BLORGE.com'
p448
sa(dp449
S'link'
p450
S'http://mikengreg.com/solipskier'
p451
sS'pubDate'
p452
g5
(S'\x07\xda\x08\r\x0b\x05\x05\x02S\xd8'
p453
tp454
Rp455
sS'title'
p456
S'Mikengreg Games Co. | Handmade Games Crafted with Love & High-Fives.'
p457
sa(dp458
g450
S'http://www.lifehacker.jp/2010/08/100806hmyegano.html'
p459
sg452
g5
(S'\x07\xda\x08\r\x0b\x05\x05\x02SH'
p460
tp461
Rp462
sg456
S'??Google????????????????????????????? : ????????????'
p463
sa(dp464
g450
S'http://www.tomscott.com/warnings/'
p465
sg452
g5
(S'\x07\xda\x08\r\x0b\x05\x05\x01\xe1\xd0'
p466
tp467
Rp468
sg456
S'Journalism Warning Labels \xab Tom Scott'
p469
sa(dp470
g450
S'http://www.bit-101.com/blog/?p=2722'
p471
sg452
g5
(S'\x07\xda\x08\r\x0b\x05\x05\x01\xe1;'
p472
tp473
Rp474
sg456
S'Kindle vs. iPad Displays: Up close and personal. | BIT-101'
p475
sa(dp476
S'link'
p477
S'http://www.freenew.net/#none'
p478
sS'pubDate'
p479
g5
(S'\x07\xda\x08\r\n\x05\x05\x036,'
p480
tp481
Rp482
sS'title'
p483
S'FreeApps Download, All Must-have Free Apps in One Click | FreeNew'
p484
sa(dp485
g477
S'http://www.open-spaces.com/article-v2n1-loren.php'
p486
sg479
g5
(S'\x07\xda\x08\r\n\x05\x05\x035\xc2'
p487
tp488
Rp489
sg483
S'Open Spaces Magazine - The Purpose of Copyright by Lydia Pallas Loren'
p490
sa(dp491
g477
S'http://www.diyphotography.net/a4-sheet-fold-me-lumiquest'
p492
sg479
g5
(S'\x07\xda\x08\r\n\x05\x05\x035['
p493
tp494
Rp495
sg483
S'A4 Sheet Fold Me Lumiquest | DIYPhotography.net'
p496
sa(dp497
g477
S'http://blogs.telegraph.co.uk/news/nilegardiner/100050412/the-stunning-decline-of-barack-obama-10-key-reasons-why-the-obama-presidency-is-in-meltdown/'
p498
sg479
g5
(S'\x07\xda\x08\r\n\x05\x05\x035\x01'
p499
tp500
Rp501
sg483
S'The stunning decline of Barack Obama: 10 key reasons why the Obama presidency is in meltdown ? Telegraph Blogs'
p502
sa(dp503
g477
S'http://www.pythonsecurity.org/'
p504
sg479
g5
(S'\x07\xda\x08\r\n\x05\x05\x034\x85'
p505
tp506
Rp507
sg483
S'Home - PythonSecurity.org'
p508
sa(dp509
g477
S'http://www.dachisgroup.com/2010/08/the-2010-social-business-landscape'
p510
sg479
g5
(S'\x07\xda\x08\r\n\x05\x05\x034$'
p511
tp512
Rp513
sg483
S'The 2010 Social Business Landscape \xab Dachis Group Collaboratory'
p514
sa(dp515
g477
S'http://www.changeofaddress.org/blog/2010/10-tips-for-better-drinking-water-at-home/'
p516
sg479
g5
(S'\x07\xda\x08\r\n\x05\x05\x033\xc0'
p517
tp518
Rp519
sg483
S'Change of Address: 10 Tips for Better Drinking Water at Home'
p520
sa(dp521
g477
S'http://speckyboy.com/2010/08/12/5-free-to-use-freelance-design-contract-templates/'
p522
sg479
g5
(S'\x07\xda\x08\r\n\x05\x05\x02\xe2:'
p523
tp524
Rp525
sg483
S'5 Free to Use Freelance Design Contract Templates :Speckyboy Design Magazine'
p526
sa(dp527
S'link'
p528
S'http://www.youtube.com/watch?v=putQn89TQzc'
p529
sS'pubDate'
p530
g5
(S'\x07\xda\x08\r\t\x05\x05\x02\xc2\x9e'
p531
tp532
Rp533
sS'title'
p534
S'YouTube - Twitter Movie Trailer: \xa0Rated Awesome'
p535
sa(dp536
g528
S'http://brainspl.at/articles/2010/08/13/4-years-at-engine-yard-what-a-long-strange-trip-its-been'
p537
sg530
g5
(S'\x07\xda\x08\r\t\x05\x05\x02\xc2\x11'
p538
tp539
Rp540
sg534
S"4 years at Engine Yard, what a long strange trip it's been."
p541
sa(dp542
g528
S'http://savedelete.com/popular-social-network-search-engines.html?sms_ss=delicious'
p543
sg530
g5
(S'\x07\xda\x08\r\t\x05\x05\x02\xc1\xbb'
p544
tp545
Rp546
sg534
S'11 Most Popular Search Engines For Social Networks'
p547
sa(dp548
g528
S'https://docs.google.com/present/view?id=dhn2vcv5_245f2nkv3g3'
p549
sg530
g5
(S'\x07\xda\x08\r\t\x05\x05\x02\xc1\x19'
p550
tp551
Rp552
sg534
S'22 Interesting Ways* to use Voicethread in the Classroom'
p553
sa(dp554
S'link'
p555
S'http://mashable.com/2010/08/13/twitter-complaints-tips/'
p556
sS'pubDate'
p557
g5
(S'\x07\xda\x08\r\x08\x05\x05\x03\x81\x02'
p558
tp559
Rp560
sS'title'
p561
S'5 Tips for Dealing with Complaints on Twitter'
p562
sa(dp563
S'link'
p564
S'http://www.molinera.es/51-herramientas-que-deberias-tener-en-cuenta-en-tu-proxima-estrategia-social-media/'
p565
sS'pubDate'
p566
g5
(S'\x07\xda\x08\r\x07\x05\x04\x0e\x8f\xaf'
p567
tp568
Rp569
sS'title'
p570
S'51 herramientas que deber\xedas tener en cuenta en tu pr\xf3xima estrategia social media.'
p571
sa(dp572
g564
S'http://www.dwsmg.com/marriage-proposalstwitter.html'
p573
sg566
g5
(S'\x07\xda\x08\r\x07\x05\x04\x0e\x8e\xda'
p574
tp575
Rp576
sg570
S'Marriage Proposals @Twitter'
p577
sa(dp578
g564
S'http://www.onlineuniversities.com/blog/2010/06/everything-you-need-to-start-your-own-coworking-group/'
p579
sg566
g5
(S'\x07\xda\x08\r\x07\x05\x04\x0e\x8eN'
p580
tp581
Rp582
sg570
S'Everything You Need to Start Your Own Coworking Group | Online Universities'
p583
sa(dp584
S'link'
p585
S'http://fivebooks.com/archive'
p586
sS'pubDate'
p587
g5
(S'\x07\xda\x08\r\x06\x05\x04\x0b\x98\xdf'
p588
tp589
Rp590
sS'title'
p591
S'The FiveBooks Interview Archive | FiveBooks'
p592
sa(dp593
g585
S'http://mashable.com/2010/08/13/tweet-button-bloggers/'
p594
sg587
g5
(S'\x07\xda\x08\r\x06\x05\x04\x0b\x98\x86'
p595
tp596
Rp597
sg591
S'HOW TO: Use Tweet Buttons as a Blogger or Site Owner'
p598
sa(dp599
g585
S'http://alpha.mixi.co.jp/blog/?p=2109'
p600
sg587
g5
(S'\x07\xda\x08\r\x06\x05\x04\x0b\x97\xe1'
p601
tp602
Rp603
sg591
S'mixi Engineers? Blog \xbb mixi?????????'
p604
sa(dp605
g585
S'http://mediainfo.in/NewsServ?method=newsdetailshow&&newsid=826'
p606
sg587
g5
(S'\x07\xda\x08\r\x06\x05\x04\n\x0e/'
p607
tp608
Rp609
sg591
S'Hot Hollywood Actress & Models Lisa Ray, Back to Life and India'
p610
sa(dp611
g585
S'http://togetter.com/li/41782'
p612
sg587
g5
(S'\x07\xda\x08\r\x06\x05\x04\n\rp'
p613
tp614
Rp615
sg591
S'Togetter - ???PG???????'
p616
sa(dp617
g585
S'http://www.mitya.co.uk/scripts/Animated-table-sort-REGEXP-friendly-111'
p618
sg587
g5
(S'\x07\xda\x08\r\x06\x05\x04\n\r\x16'
p619
tp620
Rp621
sg591
S'MITYA.CO.UK \xa0|\xa0 Scripts \xa0|\xa0 Animated table sort (REGEXP friendly)'
p622
sa(dp623
S'link'
p624
S'http://mikengreg.com/solipskier/'
p625
sS'pubDate'
p626
g5
(S'\x07\xda\x08\r\x05\x05\x05\x00\r\xc0'
p627
tp628
Rp629
sS'title'
p630
S'Mikengreg Games Co. | Handmade Games Crafted with Love & High-Fives.'
p631
sa(dp632
g624
S'http://bluefaqs.com/2010/04/60-highly-clever-minimal-logo-designs/?utm_medium=awe.sm-twitter&utm_source=direct-awe.sm&utm_content=sociable-wordpress'
p633
sg626
g5
(S'\x07\xda\x08\r\x05\x05\x05\x00\rz'
p634
tp635
Rp636
sg630
S'60 Highly Clever Minimal Logo Designs'
p637
sa(dp638
g624
S'http://www.stumbleupon.com/su/1J4K0g/www.smashingmagazine.com/2010/08/12/30-new-free-high-quality-fonts-typography/'
p639
sg626
g5
(S'\x07\xda\x08\r\x05\x05\x05\x00\r5'
p640
tp641
Rp642
sg630
S'30 New Free High-Quality Fonts - Smashing Magazine - StumbleUpon'
p643
sa(dp644
g624
S'http://www.picturebulk.com/?p=396&sms_ss=delicious'
p645
sg626
g5
(S'\x07\xda\x08\r\x05\x05\x05\x00\x0c~'
p646
tp647
Rp648
sg630
S'25 Incredible Night Scene By Photographers'
p649
sa(dp650
g624
S'http://css-tricks.com/css-sprites-workflow/'
p651
sg626
g5
(S'\x07\xda\x08\r\x05\x05\x05\x00\x08J'
p652
tp653
Rp654
sg630
S'CSS Sprites Workflow | CSS-Tricks'
p655
sa(dp656
g624
S'http://mediainfo.in/NewsServ?method=newsdetailshow&&newsid=1003'
p657
sg626
g5
(S'\x07\xda\x08\r\x05\x05\x04\x0e\xdd\xe3'
p658
tp659
Rp660
sg630
S"Microsoft Attacks Yahoo Japan's Google Deal"
p661
sa(dp662
S'link'
p663
S'http://resources.savedelete.com/12-valuable-wordpress-cheat-sheet-you-must-know.html'
p664
sS'pubDate'
p665
g5
(S'\x07\xda\x08\r\x04\x05\x05\x02\x04\xef'
p666
tp667
Rp668
sS'title'
p669
S'12 Valuable WordPress Cheat Sheets You Must Know'
p670
sa(dp671
g663
S'http://www.staff.ncl.ac.uk/hermann.moisl/ell236/manual1.htm'
p672
sg665
g5
(S'\x07\xda\x08\r\x04\x05\x05\x01\xd0\x04'
p673
tp674
Rp675
sg669
S'manual1'
p676
sa(dp677
S'link'
p678
S'http://webdesignledger.com/freebies/10-new-high-quality-free-fonts-for-your-designs'
p679
sS'pubDate'
p680
g5
(S'\x07\xda\x08\r\x03\x05\x04\x0c\xee\x19'
p681
tp682
Rp683
sS'title'
p684
S'10 New High-Quality Free Fonts for Your Designs | Freebies'
p685
sa(dp686
S'link'
p687
S'http://www.business-strategy-innovation.com/wordpress/2010/08/are-you-shifting-into-high-gear-with-social-media/'
p688
sS'pubDate'
p689
g5
(S'\x07\xda\x08\r\x02\x05\x05\x04\xe0\xcb'
p690
tp691
Rp692
sS'title'
p693
S'Are You Shifting Into High Gear with Social Media?'
p694
sa(dp695
g687
S'http://www.fiverr.com/users/lingualdesign/gigs/create-an-amazing-slideshow-with-effects-and-music-for-your-set-of-pictures'
p696
sg689
g5
(S'\x07\xda\x08\r\x02\x05\x05\x04\xbe\xce'
p697
tp698
Rp699
sg693
S'lingualdesign: I will create an amazing slideshow with effects and ...'
p700
sa(dp701
S'link'
p702
S'http://www.changeofaddress.org/blog/2010/10-tips-on-choosing-paint-colors-for-your-room/'
p703
sS'pubDate'
p704
g5
(S'\x07\xda\x08\r\x00\x05\x05\x05es'
p705
tp706
Rp707
sS'title'
p708
S'Change of Address: 10 Tips on Choosing Paint Colors for Your Room'
p709
sa(dp710
g702
S'http://www.onlinecertificateprograms.org/blog/2010/top-10-signs-youre-a-perfectionist/'
p711
sg704
g5
(S'\x07\xda\x08\r\x00\x05\x05\x05d\xe2'
p712
tp713
Rp714
sg708
S'Online Certificate Programs: Top 10 Signs You?re a Perfectionist'
p715
sa(dp716
S'link'
p717
S'http://togetter.com/li/41702'
p718
sS'pubDate'
p719
g5
(S'\x07\xda\x08\x0c\x16\x05\x05\x02Ht'
p720
tp721
Rp722
sS'title'
p723
S'Togetter - ?mixi?????memcached(or libevent?)???????????'
p724
sa(dp725
g717
S'http://www.slideshare.net/takashi_ohmoto/the-future-ofsocialmedia'
p726
sg719
g5
(S'\x07\xda\x08\x0c\x16\x05\x05\x02H\x10'
p727
tp728
Rp729
sg723
S'????????????'
p730
sa(dp731
g717
S'http://kzk9.net/blog/2010/08/mixi_memcached_14.html'
p732
sg719
g5
(S'\x07\xda\x08\x0c\x16\x05\x05\x02Gv'
p733
tp734
Rp735
sg723
S'libevent-1.3b, libmemcached-1.4.4 ????? - moratorium'
p736
sa(dp737
S'link'
p738
S'http://github.com/blog/699-making-github-more-open-git-backed-wikis'
p739
sS'pubDate'
p740
g5
(S'\x07\xda\x08\x0c\x13\x05\x05\x01\x83!'
p741
tp742
Rp743
sS'title'
p744
S'Making GitHub More Open: Git-backed Wikis - GitHub'
p745
sa(dp746
g738
S'http://echucaelearning.wikispaces.com/Google%20Docs'
p747
sg740
g5
(S'\x07\xda\x08\x0c\x13\x05\x05\x01\x82\xb7'
p748
tp749
Rp750
sg744
S'EchucaELearning - Google Docs'
p751
sa(dp752
g738
S'http://php-ru.info/servis/39n'
p753
sg740
g5
(S'\x07\xda\x08\x0c\x13\x05\x05\x01\x81\xca'
p754
tp755
Rp756
sg744
S'The Best of Free Online Flash Games'
p757
sa(dp758
g738
S'http://www.smashingmagazine.com/2010/08/12/30-new-free-high-quality-fonts-typography/'
p759
sg740
g5
(S'\x07\xda\x08\x0c\x13\x05\x05\x01\x814'
p760
tp761
Rp762
sg744
S'30 New Free High-Quality Fonts - Smashing Magazine'
p763
sa(dp764
S'link'
p765
S'http://mashable.com/2010/08/12/rowfeeder/'
p766
sS'pubDate'
p767
g5
(S'\x07\xda\x08\x0c\x12\x05\x04\x05\xe5|'
p768
tp769
Rp770
sS'title'
p771
S'Track Social Media Campaigns from Inside Microsoft Excel'
p772
sa(dp773
g765
S'http://247emergency-locksmiths.co.uk/'
p774
sg767
g5
(S'\x07\xda\x08\x0c\x12\x05\x04\x05\xe5\n'
p775
tp776
Rp777
sg771
S'247 Emergency Locksmith. Berkshire, Hampshire & Surrey'
p778
sa(dp779
S'link'
p780
S'http://theoatmeal.com/comics/ie'
p781
sS'pubDate'
p782
g5
(S'\x07\xda\x08\x0c\x11\x05\x04\r\\\x8b'
p783
tp784
Rp785
sS'title'
p786
S'When to use i.e. in a sentence - The Oatmeal'
p787
sa(dp788
g780
S'http://www.osconvo.com/post/view/2010/8/12/designing-web-applications-for-scalability'
p789
sg782
g5
(S'\x07\xda\x08\x0c\x11\x05\x04\r[\xa3'
p790
tp791
Rp792
sg786
S'Home Page'
p793
sa(dp794
g780
S'http://cargocollective.com/ap303'
p795
sg782
g5
(S'\x07\xda\x08\x0c\x11\x05\x04\r[7'
p796
tp797
Rp798
sg786
S'AP303 ESTUDIO DESIGN'
p799
sa(dp800
g780
S'http://googlepublicpolicy.blogspot.com/2010/08/facts-about-our-network-neutrality.html?'
p801
sg782
g5
(S'\x07\xda\x08\x0c\x11\x05\x04\rZ\xe9'
p802
tp803
Rp804
sg786
S'Google Public Policy Blog: Facts about our network neutrality policy proposal'
p805
sa(dp806
g780
S'http://mashable.com/2010/08/12/12-beginner-tutorials-for-getting-started-with-photoshop/?utm_source=feedburner&utm_medium=feed&utm_campaign=Feed%3A+Mashable+%28Mashable%29'
p807
sg782
g5
(S'\x07\xda\x08\x0c\x11\x05\x04\rY\x90'
p808
tp809
Rp810
sg786
S'12 Beginner Tutorials for Getting Started With Photoshop'
p811
sa(dp812
S'link'
p813
S'http://designinformer.com/designing-mind/'
p814
sS'pubDate'
p815
g5
(S'\x07\xda\x08\x0c\x10\x05\x04\n\xa0\xc2'
p816
tp817
Rp818
sS'title'
p819
S'Designing for the Mind | Design Informer'
p820
sa(dp821
g813
S'http://blog.neu.com/2010/08/10/10-tips-for-finding-mr-right-and-mr-rich/'
p822
sg815
g5
(S'\x07\xda\x08\x0c\x10\x05\x04\n\xa0)'
p823
tp824
Rp825
sg819
S'10 Tips for Finding Mr. Right (Mr. Rich!)'
p826
sa(dp827
g813
S'http://www.allfacebook.com/steal-customers-facebook-2010-08'
p828
sg815
g5
(S'\x07\xda\x08\x0c\x10\x05\x04\n\x9f\xec'
p829
tp830
Rp831
sg819
S'How To Steal Your Competitor?s Customers On Facebook'
p832
sa(dp833
g813
S'http://www.smashingapps.com/2010/08/11/most-attractive-39-corporate-website-designs-of-top-brands.html'
p834
sg815
g5
(S'\x07\xda\x08\x0c\x10\x05\x04\n\x9fw'
p835
tp836
Rp837
sg819
S'Most Attractive (39) Corporate Website Designs Of Top Brands | Free and Useful Online Resources for Designers and Developers'
p838
sa(dp839
g813
S'http://googlepublicpolicy.blogspot.com/2010/08/facts-about-our-network-neutrality.html'
p840
sg815
g5
(S'\x07\xda\x08\x0c\x10\x05\x04\n\x9f0'
p841
tp842
Rp843
sg819
S'Google Public Policy Blog: Facts about our network neutrality policy proposal'
p844
sa(dp845
g813
S'http://mashable.com/2010/08/12/google-launches-chrome-to-phone/'
p846
sg815
g5
(S'\x07\xda\x08\x0c\x10\x05\x04\n\x9e\x9a'
p847
tp848
Rp849
sg819
S'Google Launches ?Chrome to Phone?'
p850
sa(dp851
g813
S'http://www.aceaffiliates.com/affiliate-education/affiliate-fraud-the-risks-and-the-solutions.html'
p852
sg815
g5
(S'\x07\xda\x08\x0c\x10\x05\x04\n\x9d\xbf'
p853
tp854
Rp855
sg819
S'Affiliate Fraud: The Risks and The Solutions'
p856
sa(dp857
g813
S'http://mashable.com/2010/08/12/12-beginner-tutorials-for-getting-started-with-photoshop/'
p858
sg815
g5
(S'\x07\xda\x08\x0c\x10\x05\x04\n\x9c\xec'
p859
tp860
Rp861
sg819
S'12 Beginner Tutorials for Getting Started With Photoshop'
p862
sa(dp863
S'link'
p864
S'http://www.huffingtonpost.com/dr-mercola/the-cholesterol-myth-that_b_676817.html'
p865
sS'pubDate'
p866
g5
(S'\x07\xda\x08\x0c\x0f\x05\x04\x0e\x89\xab'
p867
tp868
Rp869
sS'title'
p870
S'Dr. Joseph Mercola: The Cholesterol Myth That Could Be Harming Your Health'
p871
sa(dp872
g864
S'http://smashinghub.com/25-incredible-examples-of-macro-photography.htm'
p873
sg866
g5
(S'\x07\xda\x08\x0c\x0f\x05\x04\x0e\x89f'
p874
tp875
Rp876
sg870
S'25 Incredible Examples of Macro Photography'
p877
sa(dp878
g864
S'http://jasonlbaptiste.com/venture-capital/why-they-were-able-to-raise-money/'
p879
sg866
g5
(S'\x07\xda\x08\x0c\x0f\x05\x04\x0e\x89\x08'
p880
tp881
Rp882
sg870
S'Why They Were Able To Raise Money | Jason L. Baptiste'
p883
sa(dp884
g864
S'http://www.paulenglish.com/hiring.html'
p885
sg866
g5
(S'\x07\xda\x08\x0c\x0f\x05\x04\x0e\x88V'
p886
tp887
Rp888
sg870
S'hiring religion'
p889
sa(dp890
g864
S'http://www.advanceloan.net/blog/2010/08/what-makes-money-make-money-2/'
p891
sg866
g5
(S'\x07\xda\x08\x0c\x0f\x05\x04\x0e\x88\n'
p892
tp893
Rp894
sg870
S'What Makes Money Make Money? \xab AdvanceLoan Finance Blog'
p895
sa(dp896
g864
S'http://googlemobile.blogspot.com/2010/08/just-speak-it-introducing-voice-actions.html'
p897
sg866
g5
(S'\x07\xda\x08\x0c\x0f\x05\x04\x0e\x87r'
p898
tp899
Rp900
sg870
S'Just speak it: introducing Voice Actions for Android - Official Google Mobile Blog'
p901
sa(dp902
g864
S'http://www.webmastergrade.com/top-10-cutest-baby-animals/'
p903
sg866
g5
(S'\x07\xda\x08\x0c\x0f\x05\x04\x0e\x871'
p904
tp905
Rp906
sg870
S'Top 10 Cutest Baby Animals'
p907
sa(dp908
g864
S'http://www.callingallgeeks.org/5-best-rss-feed-reader-apps-for-iphone/'
p909
sg866
g5
(S'\x07\xda\x08\x0c\x0f\x05\x04\x0e\x86\xbe'
p910
tp911
Rp912
sg870
S'5 Best RSS Feed Reader Apps for iPhone'
p913
sa(dp914
g864
S'http://mashable.com/2010/08/12/mobile-email/'
p915
sg866
g5
(S'\x07\xda\x08\x0c\x0f\x05\x04\x0e\x86o'
p916
tp917
Rp918
sg870
S'How Mobile is Affecting the Way We E-mail'
p919
sa(dp920
g864
S'http://html5games.com/'
p921
sg866
g5
(S'\x07\xda\x08\x0c\x0f\x05\x04\x0e\x85\xd9'
p922
tp923
Rp924
sg870
S'HTML5Games.com | Largest Database of HTML5 Games'
p925
sa(dp926
g864
S'http://www.wordstream.com/articles/google-failures-google-flops'
p927
sg866
g5
(S'\x07\xda\x08\x0c\x0f\x05\x04\x0e\x85u'
p928
tp929
Rp930
sg870
S'Google Flops & Failures - The Failed Google Graveyard'
p931
sa(dp932
S'link'
p933
S'http://weblog.muledesign.com/2010/08/tips_on_buying_design.php'
p934
sS'pubDate'
p935
g5
(S'\x07\xda\x08\x0c\x0e\x05\x05\x00\x05\x8f'
p936
tp937
Rp938
sS'title'
p939
S'Mule Design Studio?s Blog: Tips On Buying Design'
p940
sa(dp941
g933
S'http://gooreader.com/'
p942
sg935
g5
(S'\x07\xda\x08\x0c\x0e\x05\x05\x00\x05\x14'
p943
tp944
Rp945
sg939
S'Read Google Books on your desktop | GooReader'
p946
sa(dp947
g933
S'http://www.addictivefonts.com/script/handwritten/free-handwritten-fonts/'
p948
sg935
g5
(S'\x07\xda\x08\x0c\x0e\x05\x05\x00\x04\xbc'
p949
tp950
Rp951
sg939
S'65+ Free Handwritten Fonts for Elegant Designs'
p952
sa(dp953
g933
S'http://blueblots.com/freebies/a-collection-of-leaf-textures-for-your-next-design/'
p954
sg935
g5
(S'\x07\xda\x08\x0c\x0e\x05\x05\x00\x04\x86'
p955
tp956
Rp957
sg939
S'A Collection of Leaf Textures for your Next Design'
p958
sa(dp959
g933
S'http://dev.twitter.com/pages/tweet_button'
p960
sg935
g5
(S'\x07\xda\x08\x0c\x0e\x05\x05\x00\x04G'
p961
tp962
Rp963
sg939
S'Tweet Button | dev.twitter.com'
p964
sa(dp965
g933
S'http://stratumfoundationrepair.com/'
p966
sg935
g5
(S'\x07\xda\x08\x0c\x0e\x05\x05\x00\x03\xf1'
p967
tp968
Rp969
sg939
S'Foundation Repair Dallas TX | Foundation Repair Dallas Texas'
p970
sa(dp971
g933
S'http://www.insuranceclaims.co.uk/news/fire-brigade-marks/'
p972
sg935
g5
(S'\x07\xda\x08\x0c\x0e\x05\x05\x00\x03\x08'
p973
tp974
Rp975
sg939
S'The Marks of Rival Fire Brigades'
p976
sa(dp977
g933
S'http://www.emergingedtech.com/2010/08/facebook-as-an-instructional-technology-tool/'
p978
sg935
g5
(S'\x07\xda\x08\x0c\x0e\x05\x05\x00\x02:'
p979
tp980
Rp981
sg939
S'Facebook as an Instructional Technology Tool | Emerging Internet Technologies for Education'
p982
sa(dp983
g933
S'http://tutzone.net/2010/08/stunning-environment-creations-by-daniel-munteanu.html'
p984
sg935
g5
(S'\x07\xda\x08\x0c\x0e\x05\x05\x00\x01\x1b'
p985
tp986
Rp987
sg939
S'Stunning Environment Creations by Daniel Munteanu'
p988
sa(dp989
g933
S'http://globalthoughtz.com/2010/08/hootsuite-gets-its-premium-version-free-model-intact/'
p990
sg935
g5
(S'\x07\xda\x08\x0c\x0e\x05\x05\x00\x00\xd5'
p991
tp992
Rp993
sg939
S'HootSuite Gets its Premium Version, Free Model Intact'
p994
sa(dp995
g933
S'http://www.kadavy.net/blog/posts/design-for-hackers-why-you-dont-use-garamond-on-the-web/'
p996
sg935
g5
(S'\x07\xda\x08\x0c\x0e\x05\x04\x0f\r-'
p997
tp998
Rp999
sg939
S'Design for Hackers: Why You Don?t Use Garamond on The Web'
p1000
sa(dp1001
g933
S'http://www.totaldebtrelief.net/debt-relief-faq/debt-experiences/'
p1002
sg935
g5
(S'\x07\xda\x08\x0c\x0e\x05\x04\x0f\x0c\xdd'
p1003
tp1004
Rp1005
sg939
S'How Ordinary People Managed to Actualize Their Own Debt Relief'
p1006
sa(dp1007
g933
S'http://io9.com/5610328/how-the-googleverizon-proposal-could-kill-the-internet-in-5-years/'
p1008
sg935
g5
(S'\x07\xda\x08\x0c\x0e\x05\x04\x0f\x08\xdb'
p1009
tp1010
Rp1011
sg939
S'How the Google/Verizon proposal could kill the internet in 5 years'
p1012
sa(dp1013
S'link'
p1014
S'http://b.lesseverything.com/2010/8/12/cameron-moll-at-lessconf3010'
p1015
sS'pubDate'
p1016
g5
(S'\x07\xda\x08\x0c\r\x05\x04\x00\xd7\xac'
p1017
tp1018
Rp1019
sS'title'
p1020
S'Cameron Moll at LessConf3010 -- Less Everything Blog'
p1021
sa(dp1022
g1014
S'http://twitter.com/goodies/tweetbutton'
p1023
sg1016
g5
(S'\x07\xda\x08\x0c\r\x05\x04\x00\xd7s'
p1024
tp1025
Rp1026
sg1020
S'Twitter / Tweet Button'
p1027
sa(dp1028
g1014
S'http://wonderfullyflawed.com/2009/07/02/get-your-api-right.html'
p1029
sg1016
g5
(S'\x07\xda\x08\x0c\r\x05\x04\x00\xd7\x1b'
p1030
tp1031
Rp1032
sg1020
S'Trek | Get Your API Right'
p1033
sa(dp1034
g1014
S'http://www.mcsweeneys.net/2010/8/12hague.html'
p1035
sg1016
g5
(S'\x07\xda\x08\x0c\r\x05\x04\x00\xd6\x93'
p1036
tp1037
Rp1038
sg1020
S'McSweeney\'s Internet Tendency: Our Daughter Isn\'t a Selfish Brat; Your Son Just Hasn\'t Read "Atlas Shrugged".'
p1039
sa(dp1040
g1014
S'http://www.marketingpilgrim.com/2010/08/the-top-10-infographics-every-internet-marketer-should-bookmark.html'
p1041
sg1016
g5
(S'\x07\xda\x08\x0c\r\x05\x04\x00\xd6:'
p1042
tp1043
Rp1044
sg1020
S'The Top 10 Infographics Every Internet Marketer Should Bookmark'
p1045
sa(dp1046
g1014
S'http://www.productdigitalreviews.com/category/languages/spanish'
p1047
sg1016
g5
(S'\x07\xda\x08\x0c\r\x05\x04\x00\xd5\x85'
p1048
tp1049
Rp1050
sg1020
S'Learn to Speak Spanish Confidently, Naturally, and Fluently'
p1051
sa(dp1052
g1014
S'http://chronicle.com/blogPost/How-to-Start-Tweeting-and-Why/26065/'
p1053
sg1016
g5
(S'\x07\xda\x08\x0c\r\x05\x04\x00\xd4\xf1'
p1054
tp1055
Rp1056
sg1020
S'How to Start Tweeting (and Why You Might Want To) - ProfHacker - The Chronicle of Higher Education'
p1057
sa(dp1058
g1014
S'http://www.wordstream.com//articles/google-failures-google-flops'
p1059
sg1016
g5
(S'\x07\xda\x08\x0c\r\x05\x04\x00\xd4\x1d'
p1060
tp1061
Rp1062
sg1020
S'Google Flops & Failures - The Failed Google Graveyard'
p1063
sa(dp1064
g1014
S'http://lifehacker.com/5610737/matrix-is-the-no+nonsense-flight-pricing-engine-that-powers-the-others'
p1065
sg1016
g5
(S'\x07\xda\x08\x0c\r\x05\x04\x00\xd3\xd4'
p1066
tp1067
Rp1068
sg1020
S'Matrix Is the No-Nonsense Flight Pricing Engine that Powers the Others'
p1069
sa(dp1070
g1014
S'http://burnetters.blogspot.com/2010/08/godfathers.html'
p1071
sg1016
g5
(S'\x07\xda\x08\x0c\r\x05\x04\x00\xd3t'
p1072
tp1073
Rp1074
sg1020
S"Burnetters' Tales: The Godfathers...."
p1075
sa(dp1076
g1014
S'http://lifehacker.com/5611210/how-to-use-text-expansion-to-save-yourself-hours-of-typing-every-day'
p1077
sg1016
g5
(S'\x07\xda\x08\x0c\r\x05\x04\x00\xd3('
p1078
tp1079
Rp1080
sg1020
S'How to Use Text Expansion to Save Yourself Hours of Typing Every Week'
p1081
sa(dp1082
g1014
S'http://mashable.com/2010/08/12/tweet-button-official/'
p1083
sg1016
g5
(S'\x07\xda\x08\x0c\r\x05\x04\x00\xd2\xdd'
p1084
tp1085
Rp1086
sg1020
S'Twitter?s Official Tweet Button Has Arrived'
p1087
sa(dp1088
g1014
S'http://www.noupe.com/tutorial/photoshop-web-design-layout-tutorials-from-2010.html'
p1089
sg1016
g5
(S'\x07\xda\x08\x0c\r\x05\x04\x00\xd2J'
p1090
tp1091
Rp1092
sg1020
S'Photoshop Web Design Layout Tutorials from 2010 - Noupe Design Blog'
p1093
sa(dp1094
g1014
S'http://www.garvinlegal.com/blog/florida-law/florida-child-injury-waiver-law'
p1095
sg1016
g5
(S'\x07\xda\x08\x0c\r\x05\x04\x00\xd1\xc9'
p1096
tp1097
Rp1098
sg1020
S'Florida reinstates parental waivers, but are children protected?'
p1099
sa(dp1100
S'link'
p1101
S'http://blog.sherweb.com/6-things-you-should-know-about-computer-forensics/'
p1102
sS'pubDate'
p1103
g5
(S'\x07\xda\x08\x0c\x0c\x05\x05\x01\xc5A'
p1104
tp1105
Rp1106
sS'title'
p1107
S'6 Things You Should Know About Computer Forensics | Sherweb blog'
p1108
sa(dp1109
g1101
S'http://www.convinceandconvert.com/twitter/is-twitter-for-business-even-worth-the-trouble/'
p1110
sg1103
g5
(S'\x07\xda\x08\x0c\x0c\x05\x05\x01\xc5\x10'
p1111
tp1112
Rp1113
sg1107
S'Is Twitter for Business Even Worth the Trouble | social crm | Social Media Consulting - Convince & Convert'
p1114
sa(dp1115
g1101
S'http://blog.twitter.com/2010/08/pushing-our-tweet-button.html'
p1116
sg1103
g5
(S'\x07\xda\x08\x0c\x0c\x05\x05\x01\xc4O'
p1117
tp1118
Rp1119
sg1107
S'Twitter Blog: Pushing Our (Tweet) Button'
p1120
sa(dp1121
g1101
S'http://www.ohdeedoh.com/ohdeedoh/old-paperbacks-to-custom-hardbackshow-to-124005'
p1122
sg1103
g5
(S'\x07\xda\x08\x0c\x0c\x05\x05\x01\xc3\xa8'
p1123
tp1124
Rp1125
sg1107
S'Turn Old Paperbacks into Custom HardbacksHow To | Apartment Therapy Ohdeedoh'
p1126
sa(dp1127
g1101
S'http://mashable.com/2010/08/12/tweetable-moment-presentations'
p1128
sg1103
g5
(S'\x07\xda\x08\x0c\x0c\x05\x05\x01\xc2\xf0'
p1129
tp1130
Rp1131
sg1107
S'HOW TO: Get Tweetable Moments from Your Presentations'
p1132
sa(dp1133
g1101
S'http://factore.ca/on-the-floor/63-3-jquery-plugins-i-use-all-the-time'
p1134
sg1103
g5
(S'\x07\xda\x08\x0c\x0c\x05\x05\x01\xc2\xa3'
p1135
tp1136
Rp1137
sg1107
S'3 jQuery plugins I use all the time | factor[e] design initiative'
p1138
sa(dp1139
g1101
S'http://www.macsimumnews.com/index.php/archive/gregs_bite_how_to_publish_an_apple_ibook/'
p1140
sg1103
g5
(S'\x07\xda\x08\x0c\x0c\x05\x05\x01\xc2\x1b'
p1141
tp1142
Rp1143
sg1107
S'Macsimum News - Greg?s bite: How to publish an Apple iBook'
p1144
sa(dp1145
g1101
S'http://www.stenotech.edu/'
p1146
sg1103
g5
(S'\x07\xda\x08\x0c\x0c\x05\x05\x01\xc1m'
p1147
tp1148
Rp1149
sg1107
S'Court Reporting School in New Jersey | StenoTech Career Institute'
p1150
sa(dp1151
g1101
S'http://www.advanceshutters.co.uk/'
p1152
sg1103
g5
(S'\x07\xda\x08\x0c\x0c\x05\x05\x01\xc1\x0f'
p1153
tp1154
Rp1155
sg1107
S'Advance Shutters, Manual Electric Garage doors, electric gates ...'
p1156
sa(dp1157
g1101
S'http://lifehacker.com/5610568/calculate-the-perfect-handbrake-video-encoding-settings-for-your-device'
p1158
sg1103
g5
(S'\x07\xda\x08\x0c\x0c\x05\x05\x01\xc0\xa6'
p1159
tp1160
Rp1161
sg1107
S'Calculate the Perfect Handbrake Video Encoding Settings for Your Device'
p1162
sa(dp1163
g1101
S'http://www.linux-mag.com/id/7833'
p1164
sg1103
g5
(S'\x07\xda\x08\x0c\x0c\x05\x05\x01\xc0m'
p1165
tp1166
Rp1167
sg1107
S'Cool User File Systems: GlusterFS | Linux Magazine'
p1168
sa(dp1169
g1101
S'http://delicious.com/url/ff4c03b1bb545c51a72382310a216cf9'
p1170
sg1103
g5
(S'\x07\xda\x08\x0c\x0c\x05\x05\x01\xbf\xae'
p1171
tp1172
Rp1173
sg1107
S'learn spanish online'
p1174
sa(dp1175
S'link'
p1176
S'http://www.emarketer.com/Article.aspx?R=1007863'
p1177
sS'pubDate'
p1178
g5
(S'\x07\xda\x08\x0c\x0b\x05\x05\x00*\xec'
p1179
tp1180
Rp1181
sS'title'
p1182
S'What Makes Social Media Trustworthy? - eMarketer'
p1183
sa(dp1184
g1176
S'http://www.iretireearly.com/how-to-save-money.html'
p1185
sg1178
g5
(S'\x07\xda\x08\x0c\x0b\x05\x05\x00*X'
p1186
tp1187
Rp1188
sg1182
S'How to save money'
p1189
sa(dp1190
g1176
S'http://adage.com/cmostrategy/article?article_id=145351'
p1191
sg1178
g5
(S'\x07\xda\x08\x0c\x0b\x05\x05\x00)\xe2'
p1192
tp1193
Rp1194
sg1182
S'Do We Still Need Websites? - Advertising Age - CMO Strategy'
p1195
sa(dp1196
g1176
S'http://www.guardian.co.uk/commentisfree/2010/aug/12/clicktivism-ruining-leftist-activism'
p1197
sg1178
g5
(S'\x07\xda\x08\x0c\x0b\x05\x05\x00)\x9f'
p1198
tp1199
Rp1200
sg1182
S'Clicktivism is ruining leftist activism | Micah White | Comment is free | guardian.co.uk'
p1201
sa(dp1202
g1176
S'http://smoothiecharts.org/'
p1203
sg1178
g5
(S'\x07\xda\x08\x0c\x0b\x05\x05\x00)Z'
p1204
tp1205
Rp1206
sg1182
S'Smoothie Charts'
p1207
sa(dp1208
g1176
S'http://www.whathotnow.net/sale9'
p1209
sg1178
g5
(S'\x07\xda\x08\x0c\x0b\x05\x05\x00)\x14'
p1210
tp1211
Rp1212
sg1182
S'Make Money With Dropship Business'
p1213
sa(dp1214
g1176
S'http://photojojo.com/store/awesomeness/cell-phone-lenses/'
p1215
sg1178
g5
(S'\x07\xda\x08\x0c\x0b\x05\x05\x00(\xc4'
p1216
tp1217
Rp1218
sg1182
S'Fisheye, Macro, and Wide Angle Camera Phone Lenses'
p1219
sa(dp1220
g1176
S'http://technologytosoftware.com/most-useful-css3-generators.html'
p1221
sg1178
g5
(S'\x07\xda\x08\x0c\x0b\x05\x05\x00(q'
p1222
tp1223
Rp1224
sg1182
S'11 Best CSS3 Generators To Save Your Valuable Time'
p1225
sa(dp1226
g1176
S'http://freelancefolder.com/5-quick-seo-tips-to-help-freelancers-get-higher-search-engine-rankings/'
p1227
sg1178
g5
(S'\x07\xda\x08\x0c\x0b\x05\x05\x00(\x12'
p1228
tp1229
Rp1230
sg1182
S'5 Quick SEO Tips to Help Freelancers Get Higher Search Engine Rankings | FreelanceFolder'
p1231
sa(dp1232
g1176
S'http://www.linguee.fr/'
p1233
sg1178
g5
(S"\x07\xda\x08\x0c\x0b\x05\x05\x00'\x8d"
p1234
tp1235
Rp1236
sg1182
S'Linguee ? Le web est un dictionnaire ? Fran\xe7ais / Anglais'
p1237
sa(dp1238
g1176
S'http://www.tuaw.com/2010/08/12/how-to-publish-an-apple-ibook/'
p1239
sg1178
g5
(S'\x07\xda\x08\x0c\x0b\x05\x05\x00&M'
p1240
tp1241
Rp1242
sg1182
S'How to publish an Apple iBook'
p1243
sa(dp1244
S'link'
p1245
S'http://www.gooreader.com/'
p1246
sS'pubDate'
p1247
g5
(S'\x07\xda\x08\x0c\n\x05\x04\x0e\x1e\xce'
p1248
tp1249
Rp1250
sS'title'
p1251
S'Read Google Books on your desktop | GooReader'
p1252
sa(dp1253
g1245
S'http://abduzeedo.com/tags/logo-design'
p1254
sg1247
g5
(S'\x07\xda\x08\x0c\n\x05\x04\x0e\x1e\x93'
p1255
tp1256
Rp1257
sg1251
S'logo design | Abduzeedo | Graphic Design Inspiration and Photoshop Tutorials'
p1258
sa(dp1259
g1245
S'http://lifehacker.com/5611003/build-a-find-my-iphone-clone-for-android'
p1260
sg1247
g5
(S'\x07\xda\x08\x0c\n\x05\x04\x0e\x1e-'
p1261
tp1262
Rp1263
sg1251
S'Create Your Own "Find My iPhone" for Android'
p1264
sa(dp1265
g1245
S'http://mrsadean.weebly.com/index.html'
p1266
sg1247
g5
(S'\x07\xda\x08\x0c\n\x05\x04\x0e\x1d\x8b'
p1267
tp1268
Rp1269
sg1251
S"Dean's Page"
p1270
sa(dp1271
g1245
S'http://www.ibm.com/developerworks/aix/library/au-vitips.html?ca=dgr-lnxw01VITips10dth-AIX'
p1272
sg1247
g5
(S'\x07\xda\x08\x0c\n\x05\x04\x0e\x1d8'
p1273
tp1274
Rp1275
sg1251
S'vi tips and tricks: Ten cool commands sure to impress your friends'
p1276
sa(dp1277
g1245
S'http://matrix2.itasoftware.com/'
p1278
sg1247
g5
(S'\x07\xda\x08\x0c\n\x05\x04\x0e\x1c\xbf'
p1279
tp1280
Rp1281
sg1251
S'Matrix 2 - Search'
p1282
sa(dp1283
g1245
S'http://mashable.com/2010/08/12/tweetable-moment-presentations/'
p1284
sg1247
g5
(S'\x07\xda\x08\x0c\n\x05\x04\x0e\x1cN'
p1285
tp1286
Rp1287
sg1251
S'HOW TO: Get Tweetable Moments from Your Presentations'
p1288
sa(dp1289
g1245
S'http://www.uk-epc.co.uk/'
p1290
sg1247
g5
(S'\x07\xda\x08\x0c\n\x05\x04\x0e\x1c\x15'
p1291
tp1292
Rp1293
sg1251
S'EPC | Energy Performance Certificate - Home & Commercial EPC'
p1294
sa(dp1295
g1245
S'http://michaelyingling.com/random/calvin_and_hobbes/'
p1296
sg1247
g5
(S'\x07\xda\x08\x0c\n\x05\x04\x0e\x1b\x88'
p1297
tp1298
Rp1299
sg1251
S'Calvin & Hobbes Search Engine - by Bing'
p1300
sa(dp1301
g1245
S'http://io9.com/5610328/how-the-googleverizon-proposal-could-kill-the-internet-in-5-years'
p1302
sg1247
g5
(S'\x07\xda\x08\x0c\n\x05\x04\x0e\x1bL'
p1303
tp1304
Rp1305
sg1251
S'How the Google/Verizon proposal could kill the internet in 5 years'
p1306
sa(dp1307
g1245
S'http://www.chrisbrogan.com/my-twitter-presence/'
p1308
sg1247
g5
(S'\x07\xda\x08\x0c\n\x05\x04\x0e\x1a\xd6'
p1309
tp1310
Rp1311
sg1251
S'My Twitter Presence'
p1312
sa(dp1313
S'link'
p1314
S'http://www.guardian.co.uk/society/2010/aug/12/the-end-of-antibiotics-health-infections'
p1315
sS'pubDate'
p1316
g5
(S'\x07\xda\x08\x0c\t\x05\x05\x0f \xab'
p1317
tp1318
Rp1319
sS'title'
p1320
S'Are you ready for a world without antibiotics? | Society | The Guardian'
p1321
sa(dp1322
g1314
S'http://classroomtales.com/pgce-survival-guide-pgcetips/'
p1323
sg1316
g5
(S'\x07\xda\x08\x0c\t\x05\x05\x0f\x1f\xd2'
p1324
tp1325
Rp1326
sg1320
S'PGCE Survival Guide (#pgcetips) \xab Tales from a Newly Qualified Teacher'
p1327
sa(dp1328
g1314
S'http://designshack.co.uk/articles/business-articles/how-persuasive-is-your-website%E2%80%99s-copy-a-simple-five-step-checklist'
p1329
sg1316
g5
(S'\x07\xda\x08\x0c\t\x05\x05\x0f\x1f\x03'
p1330
tp1331
Rp1332
sg1320
S'How persuasive is your website?s copy? A simple, five-step checklist | Design Shack'
p1333
sa(dp1334
g1314
S'http://www.changeofaddress.org/blog/2010/10-signs-that-you-may-be-a-hoarder/'
p1335
sg1316
g5
(S'\x07\xda\x08\x0c\t\x05\x05\x0f\x1e\x93'
p1336
tp1337
Rp1338
sg1320
S'http://www.changeofaddress.org/blog/2010/10-signs-that-you-may-be-a-hoarder/'
p1339
sa(dp1340
S'link'
p1341
S'http://savedelete.com/40-most-artistic-examples-of-ipad-finger-painting.html'
p1342
sS'pubDate'
p1343
g5
(S'\x07\xda\x08\x0c\x08\x05\x04\x04\xc7\x0c'
p1344
tp1345
Rp1346
sS'title'
p1347
S'40+ Most Artistic Examples Of iPad Finger Painting'
p1348
sa(dp1349
g1341
S'http://www.sharetechno.com/sony-ericsson-yendo-touchscreen-walkman-music-phone/'
p1350
sg1343
g5
(S'\x07\xda\x08\x0c\x08\x05\x04\x04\xc6='
p1351
tp1352
Rp1353
sg1347
S'Sony Ericsson Yendo TouchScreen WalkMan Music Phone'
p1354
sa(dp1355
g1341
S'http://d.hatena.ne.jp/vwxyz/20100812/1281593928'
p1356
sg1343
g5
(S'\x07\xda\x08\x0c\x08\x05\x04\x04\xc5['
p1357
tp1358
Rp1359
sg1347
S'Craig Weber??????????????????????(Ask HN) - ??????????????????? with Web Standards'
p1360
sa(dp1361
g1341
S'http://www.webdesignerdepot.com/2010/08/7-reasons-why-i-choose-fireworks-over-photoshop/'
p1362
sg1343
g5
(S'\x07\xda\x08\x0c\x08\x05\x04\x04\xc4\xc5'
p1363
tp1364
Rp1365
sg1347
S'7 Reasons Why I Choose Fireworks Over Photoshop | Webdesigner Depot'
p1366
sa(dp1367
S'link'
p1368
S'http://developer.apple.com/iphone/library/qa/qa2010/qa1686.html'
p1369
sS'pubDate'
p1370
g5
(S'\x07\xda\x08\x0c\x07\x05\x04\x0b(F'
p1371
tp1372
Rp1373
sS'title'
p1374
S'Technical Q&A QA1686: App Icons on iPad and iPhone'
p1375
sa(dp1376
g1368
S'http://www.onlineuniversities.com/blog/2010/07/20-inspiring-ted-talks-for-recent-college-grads/'
p1377
sg1370
g5
(S"\x07\xda\x08\x0c\x07\x05\x04\x0b'\xe9"
p1378
tp1379
Rp1380
sg1374
S'20 Inspiring TED Talks for Recent College Grads | Online Universities'
p1381
sa(dp1382
g1368
S'http://sixrevisions.com/web-applications/designing-web-apps-for-the-ipad/'
p1383
sg1370
g5
(S"\x07\xda\x08\x0c\x07\x05\x04\x0b'\x9e"
p1384
tp1385
Rp1386
sg1374
S'Designing Web Apps for the iPad'
p1387
sa(dp1388
g1368
S'http://www.bbc.co.uk/news/world-us-canada-10900068'
p1389
sg1370
g5
(S"\x07\xda\x08\x0c\x07\x05\x04\x0b'\x1c"
p1390
tp1391
Rp1392
sg1374
S'BBC News - Teaching philosophy with Spider-Man'
p1393
sa(dp1394
g1368
S'http://blog.tweetsmarter.com/twitter-search/10-ways-and-20-features-for-searching-old-tweets/'
p1395
sg1370
g5
(S'\x07\xda\x08\x0c\x07\x05\x04\x0b&\x96'
p1396
tp1397
Rp1398
sg1374
S'10 ways and 20 features for searching old tweets'
p1399
sa(dp1400
g1368
S'https://docs.google.com/present/view?id=dhn2vcv5_436f8kscmdc'
p1401
sg1370
g5
(S'\x07\xda\x08\x0c\x07\x05\x04\x0b%\xbb'
p1402
tp1403
Rp1404
sg1374
S'24 Interesting Ways to use Wallwisher in the Classroom'
p1405
sa(dp1406
g1368
S'http://unsuck-it.com/'
p1407
sg1370
g5
(S'\x07\xda\x08\x0c\x07\x05\x04\x0b%H'
p1408
tp1409
Rp1410
sg1374
S'Unsuck It'
p1411
sa(dp1412
S'link'
p1413
S'http://blog.developpeurweb.fr/2010/08/12/creation-de-newsletters-via-facebook'
p1414
sS'pubDate'
p1415
g5
(S'\x07\xda\x08\x0c\x06\x05\x04\x0e\xf6\xd8'
p1416
tp1417
Rp1418
sS'title'
p1419
S'Cr\xe9ation de Newsletters via Facebook -- Blog du DeveloppeurWeb.fr'
p1420
sa(dp1421
g1413
S'https://code.google.com/p/android-apktool/'
p1422
sg1415
g5
(S'\x07\xda\x08\x0c\x06\x05\x04\x0e\xf5\xcb'
p1423
tp1424
Rp1425
sg1419
S'android-apktool - Project Hosting on Google Code'
p1426
sa(dp1427
g1413
S'http://net.tutsplus.com/tutorials/javascript-ajax/quick-tip-an-introduction-to-sammy-js/'
p1428
sg1415
g5
(S'\x07\xda\x08\x0c\x06\x05\x04\x0e\xf4\xf0'
p1429
tp1430
Rp1431
sg1419
S'Quick Tip: An Introduction to Sammy.js | Nettuts+'
p1432
sa(dp1433
g1413
S'http://designluv.com/input-output/tutorials/a-style-guide-for-php-developers/'
p1434
sg1415
g5
(S'\x07\xda\x08\x0c\x06\x05\x04\x0e\xdc\\'
p1435
tp1436
Rp1437
sg1419
S'A style guide for PHP developers | DesignLuv'
p1438
sa(dp1439
S'link'
p1440
S'http://labs.unoh.net/2010/08/cassandra.html'
p1441
sS'pubDate'
p1442
g5
(S'\x07\xda\x08\x0c\x05\x05\x04\x0b\xbc\x1a'
p1443
tp1444
Rp1445
sS'title'
p1446
S'????? Unoh Labs: ???????Cassandra??'
p1447
sa(dp1448
g1440
S'http://oddstuffmagazine.com/life-of-diamonds-in-pictures.html'
p1449
sg1442
g5
(S'\x07\xda\x08\x0c\x05\x05\x04\x0b\x98\x07'
p1450
tp1451
Rp1452
sg1446
S'Life Of Diamonds In Pictures'
p1453
sa(dp1454
g1440
S'http://www.picturebulk.com/?p=370&sms_ss=delicious'
p1455
sg1442
g5
(S'\x07\xda\x08\x0c\x05\x05\x04\x0b<\x1d'
p1456
tp1457
Rp1458
sg1446
S'20 3D Cartoon Model Look Like Real'
p1459
sa(dp1460
S'link'
p1461
S'http://mediainfo.in/NewsServ?method=newsdetailshow&&newsid=1002'
p1462
sS'pubDate'
p1463
g5
(S'\x07\xda\x08\x0c\x04\x05\x04\x0c\xf6\xbf'
p1464
tp1465
Rp1466
sS'title'
p1467
S'Microsoft readies second beta of Windows Live Essentials 2011'
p1468
sa(dp1469
S'link'
p1470
S'http://graphicalerts.com/20-best-jquery-slideshow-image-photo-gallery-plugins/'
p1471
sS'pubDate'
p1472
g5
(S'\x07\xda\x08\x0c\x03\x05\x05\x02y\x1a'
p1473
tp1474
Rp1475
sS'title'
p1476
S'20 Best jQuery Slideshow / Photo Gallery Plugins'
p1477
sa(dp1478
S'link'
p1479
S'http://jp.techcrunch.com/archives/jp20100812google-map-real-estate/'
p1480
sS'pubDate'
p1481
g5
(S'\x07\xda\x08\x0c\x02\x05\x05\x04\xe2S'
p1482
tp1483
Rp1484
sS'title'
p1485
S'[jp]Google?????????????'
p1486
sa(dp1487
g1479
S'http://globalthoughtz.com/2010/08/baidu-announce-mystery-%E2%80%98revolutionary%E2%80%99-product/'
p1488
sg1481
g5
(S'\x07\xda\x08\x0c\x02\x05\x05\x04\xdf\xd6'
p1489
tp1490
Rp1491
sg1485
S'Baidu announce mystery ?revolutionary? product'
p1492
sa(dp1493
g1479
S'http://www.masterinpublicadministration.com/top-20-urban-planning-successes-of-all-time.html'
p1494
sg1481
g5
(S'\x07\xda\x08\x0c\x02\x05\x05\x04\x9bg'
p1495
tp1496
Rp1497
sg1485
S'Top 20 Urban Planning Successes of All Time'
p1498
sa(dp1499
S'link'
p1500
S'http://pyrimidine.livejournal.com/4702.html'
p1501
sS'pubDate'
p1502
g5
(S'\x07\xda\x08\x0c\x01\x05\x05\n\r\x01'
p1503
tp1504
Rp1505
sS'title'
p1506
S'pyrimidine: Sort of RevolutionInception: Arthur/Eame'
p1507
sa(dp1508
S'link'
p1509
S'http://www.publickey1.jp/blog/10/miximemcached.html'
p1510
sS'pubDate'
p1511
g5
(S'\x07\xda\x08\x0c\x00\x05\x04\r\xda\xcb'
p1512
tp1513
Rp1514
sS'title'
p1515
S'????mixi???????????????????????????memcached????? ? Publickey'
p1516
sa(dp1517
g1509
S'http://www.healthtips101.com/thinking-of-switching-to-a-vegetarian-diet'
p1518
sg1511
g5
(S'\x07\xda\x08\x0c\x00\x05\x04\r\xda\x19'
p1519
tp1520
Rp1521
sg1515
S'Thinking Of Switching To A Vegetarian Diet'
p1522
sa(dp1523
S'link'
p1524
S'http://arstechnica.com/web/guides/2010/08/how-to-book-the-perfect-flight-online.ars'
p1525
sS'pubDate'
p1526
g5
(S'\x07\xda\x08\x0b\x17\x05\x05\x02E\xa1'
p1527
tp1528
Rp1529
sS'title'
p1530
S'Harness the power of the Internet to book the perfect flight'
p1531
sa(dp1532
g1524
S'http://recrudescence.livejournal.com/291554.html'
p1533
sg1526
g5
(S'\x07\xda\x08\x0b\x17\x05\x05\x02E\x0c'
p1534
tp1535
Rp1536
sg1530
S'Knickpoint'
p1537
sa(dp1538
g1524
S'http://coliss.com/articles/build-websites/operation/design/5-small-business-design-trends.html'
p1539
sg1526
g5
(S'\x07\xda\x08\x0b\x17\x05\x05\x02D\xcc'
p1540
tp1541
Rp1542
sg1530
S'???????????????????5?????????? | ???'
p1543
sa(dp1544
g1524
S'http://www.internetmarketingace.com/getting-traffic-from-ebay/'
p1545
sg1526
g5
(S'\x07\xda\x08\x0b\x17\x05\x05\x02D\x94'
p1546
tp1547
Rp1548
sg1530
S'Getting Traffic From Ebay'
p1549
sa(dp1550
g1524
S'http://www.trumanmarketing.com/'
p1551
sg1526
g5
(S'\x07\xda\x08\x0b\x17\x05\x05\x02C\xb4'
p1552
tp1553
Rp1554
sg1530
S'Truman Marketing'
p1555
sa(dp1556
g1524
S'http://healthtipsforwomen.com/great-summer-hairstyles-for-women/'
p1557
sg1526
g5
(S'\x07\xda\x08\x0b\x17\x05\x05\x02C8'
p1558
tp1559
Rp1560
sg1530
S'Great Summer Hairstyles For Women'
p1561
sa(dp1562
S'link'
p1563
S'http://community.livejournal.com/inception_kink/4946.html?thread=6849106#t6849106'
p1564
sS'pubDate'
p1565
g5
(S'\x07\xda\x08\x0b\x16\x05\x05\x01/\xf9'
p1566
tp1567
Rp1568
sS'title'
p1569
S'inception_kink: Prompt Post No. 3'
p1570
sa(dp1571
g1563
S'http://mpi104masterblog.blogspot.com/'
p1572
sg1565
g5
(S'\x07\xda\x08\x0b\x16\x05\x05\x01/m'
p1573
tp1574
Rp1575
sg1569
S'Master Blog'
p1576
sa(dp1577
S'link'
p1578
S'http://www.mkponline.co.uk/'
p1579
sS'pubDate'
p1580
g5
(S'\x07\xda\x08\x0b\x15\x05\x04\x0e\xf6\x03'
p1581
tp1582
Rp1583
sS'title'
p1584
S"Childrens Entertainers | Children's Party Entertainers > Kids ..."
p1585
sa(dp1586
g1578
S'http://www.paulgraham.com/yahoo.html'
p1587
sg1580
g5
(S'\x07\xda\x08\x0b\x15\x05\x04\x0e\xf5\xc6'
p1588
tp1589
Rp1590
sg1584
S'What Happened to Yahoo'
p1591
sa(dp1592
g1578
S'http://www.cbc.ca/world/story/2008/08/15/f-vp-ross.html'
p1593
sg1580
g5
(S'\x07\xda\x08\x0b\x15\x05\x04\x0e\xf5{'
p1594
tp1595
Rp1596
sg1584
S'CBC News - World - A split in linguistic personalities'
p1597
sa(dp1598
g1578
S'http://www.satellitedish.org/blog/2010/10-terrible-as-seen-on-tv-products-i-bought/'
p1599
sg1580
g5
(S'\x07\xda\x08\x0b\x15\x05\x04\x0e\xf5F'
p1600
tp1601
Rp1602
sg1584
S'http://www.satellitedish.org/blog/2010/10-terrible-as-seen-on-tv-products-i-bought/'
p1603
sa(dp1604
g1578
S'http://gridulator.com/subrosa/'
p1605
sg1580
g5
(S'\x07\xda\x08\x0b\x15\x05\x04\x0e\xf4\xbb'
p1606
tp1607
Rp1608
sg1584
S'Gridulator PREVIEW'
p1609
sa(dp1610
g1578
S'http://www.mpi104masterblog.blogspot.com/'
p1611
sg1580
g5
(S'\x07\xda\x08\x0b\x15\x05\x04\x0e\xf4g'
p1612
tp1613
Rp1614
sg1584
S'Master Blog'
p1615
sa(dp1616
S'link'
p1617
S'http://www.engadget.com/2010/08/11/exclusive-sony-ericsson-to-introduce-android-3-0-gaming-platfor/'
p1618
sS'pubDate'
p1619
g5
(S'\x07\xda\x08\x0b\x14\x05\x05\x02\xa1\xe8'
p1620
tp1621
Rp1622
sS'title'
p1623
S'Exclusive: Sony Ericsson to introduce Android 3.0 gaming platform and PSP Go-like smartphone -- Engadget'
p1624
sa(dp1625
g1617
S'http://mashable.com/2010/08/11/weeplaces/'
p1626
sg1619
g5
(S'\x07\xda\x08\x0b\x14\x05\x05\x02\xa0\xfa'
p1627
tp1628
Rp1629
sg1623
S'HOW TO: Visualize All Your Foursquare Check-ins'
p1630
sa(dp1631
S'link'
p1632
S'http://mashable.com/2010/08/11/parature-for-facebook/'
p1633
sS'pubDate'
p1634
g5
(S'\x07\xda\x08\x0b\x13\x05\x05\x00<\xcf'
p1635
tp1636
Rp1637
sS'title'
p1638
S'Facebook Pages Become Customer Support Centers'
p1639
sa(dp1640
g1632
S'http://www.engadget.com/2010/08/11/upcoming-apple-tv-loses-1080p-playback-gains-apps/'
p1641
sg1634
g5
(S'\x07\xda\x08\x0b\x13\x05\x05\x00<P'
p1642
tp1643
Rp1644
sg1638
S'Exclusive: Upcoming Apple TV loses 1080p playback, gains apps... and will be renamed iTV -- Engadget'
p1645
sa(dp1646
g1632
S'http://www.renaebair.com/2010/08/11/my-husband-is-a-programmer-i-have-no-idea-what-that-means/'
p1647
sg1634
g5
(S'\x07\xda\x08\x0b\x13\x05\x05\x00;\xeb'
p1648
tp1649
Rp1650
sg1638
S'http://www.renaebair.com/2010/08/11/my-husband-is-a-programmer-i-have-no-idea-what-that-means/'
p1651
sa(dp1652
g1632
S'http://principals.wikispaces.com/legal'
p1653
sg1634
g5
(S'\x07\xda\x08\x0b\x13\x05\x05\x00;2'
p1654
tp1655
Rp1656
sg1638
S'principals - legal'
p1657
sa(dp1658
S'link'
p1659
S'http://www.bachelorofscience.com/100-best-youtube-videos-for-science-teachers'
p1660
sS'pubDate'
p1661
g5
(S'\x07\xda\x08\x0b\x12\x05\x05\x01\x1em'
p1662
tp1663
Rp1664
sS'title'
p1665
S'Bachelor Of Science \xbb Blog Archive \xbb 100 Best YouTube Videos for Science Teachers'
p1666
sa(dp1667
S'link'
p1668
S'http://catastrophemonitor.com/public_html/article.php?story=20100811114938260'
p1669
sS'pubDate'
p1670
g5
(S'\x07\xda\x08\x0b\x11\x05\x05\x02|\xc3'
p1671
tp1672
Rp1673
sS'title'
p1674
S'Death toll in China landslides rises to 1,117'
p1675
sa(dp1676
g1668
S'http://www.post.edu/online/degrees/masters-education/index.shtml'
p1677
sg1670
g5
(S'\x07\xda\x08\x0b\x11\x05\x05\x02{\xf3'
p1678
tp1679
Rp1680
sg1674
S"Master's of Education Online | Master's of Education Online Degrees | Post University Online"
p1681
sa(dp1682
g1668
S'http://blog.rapportive.com/the-accidental-launch'
p1683
sg1670
g5
(S'\x07\xda\x08\x0b\x11\x05\x05\x02{&'
p1684
tp1685
Rp1686
sg1674
S'The Accidental Launch - Rapportive'
p1687
sa(dp1688
S'link'
p1689
S'http://lifehacker.com/5610336/provide-your-house-guests-with-a-handy-guest-information-packet'
p1690
sS'pubDate'
p1691
g5
(S'\x07\xda\x08\x0b\x10\x05\x04\x07\xfd\xa7'
p1692
tp1693
Rp1694
sS'title'
p1695
S'Our Handy, Printable Guest Information Packet'
p1696
sa(dp1697
g1689
S'http://www.socialmediaexaminer.com/prospect-for-business-connections-using-linkedin-and-twitter/'
p1698
sg1691
g5
(S'\x07\xda\x08\x0b\x10\x05\x04\x07\xfd5'
p1699
tp1700
Rp1701
sg1695
S'Prospect for Business Using LinkedIn and Twitter Together | Social Media Examiner'
p1702
sa(dp1703
g1689
S'http://lifehacker.com/5610363/grocery-iq-is-a-brilliant-grocery-list-application'
p1704
sg1691
g5
(S'\x07\xda\x08\x0b\x10\x05\x04\x07\xfc\xe6'
p1705
tp1706
Rp1707
sg1695
S'Grocery IQ Is a Brilliant Grocery List Application'
p1708
sa(dp1709
g1689
S'http://www.webdesignish.com/amazingly-creative-examples-of-smoke-typography-designs.html'
p1710
sg1691
g5
(S'\x07\xda\x08\x0b\x10\x05\x04\x07\xfcu'
p1711
tp1712
Rp1713
sg1695
S'Amazingly Creative Examples Of Smoke Typography Designs'
p1714
sa(dp1715
g1689
S'http://www.allfacebook.com/how-gained-fans-2010-08'
p1716
sg1691
g5
(S'\x07\xda\x08\x0b\x10\x05\x04\x07\xfc\x0c'
p1717
tp1718
Rp1719
sg1695
S'How A 13 Year Old Gained 16,000 Fans In 96 Hours'
p1720
sa(dp1721
S'link'
p1722
S'https://steelsmithinc.com/'
p1723
sS'pubDate'
p1724
g5
(S'\x07\xda\x08\x0b\x0f\x05\x04\t\x18e'
p1725
tp1726
Rp1727
sS'title'
p1728
S'Steel Buildings'
p1729
sa(dp1730
g1722
S'http://www.allthingscrm.com/crm-news/crm/crm-tactics-to-win-back-former-clients/'
p1731
sg1724
g5
(S'\x07\xda\x08\x0b\x0f\x05\x04\t\x18\x02'
p1732
tp1733
Rp1734
sg1728
S'8 Ways To Win Back A Lost Client (Infographic)'
p1735
sa(dp1736
g1722
S'http://themify.me/'
p1737
sg1724
g5
(S'\x07\xda\x08\x0b\x0f\x05\x04\t\x17\xa9'
p1738
tp1739
Rp1740
sg1728
S'Themify'
p1741
sa(dp1742
g1722
S'http://mashable.com/2010/08/11/cross-platform-mobile-development-tools/'
p1743
sg1724
g5
(S'\x07\xda\x08\x0b\x0f\x05\x04\t\x17P'
p1744
tp1745
Rp1746
sg1728
S'5 Cross-Platform Mobile Development Tools You Should Try'
p1747
sa(dp1748
g1722
S'http://www.comscore.com/Press_Events/Press_Releases/2010/8/Indonesia_Brazil_and_Venezuela_Lead_Global_Surge_in_Twitter_Usage'
p1749
sg1724
g5
(S'\x07\xda\x08\x0b\x0f\x05\x04\t\x16\xaf'
p1750
tp1751
Rp1752
sg1728
S'Indonesia, Brazil and Venezuela Lead Global Surge in Twitter Usage - comScore, Inc'
p1753
sa(dp1754
g1722
S'http://slodive.com/freebies/fresh-twitter-icon-sets-2010-version/'
p1755
sg1724
g5
(S'\x07\xda\x08\x0b\x0f\x05\x04\t\x16O'
p1756
tp1757
Rp1758
sg1728
S'Fresh Twitter Icon Sets 2010 Version'
p1759
sa(dp1760
g1722
S'http://cd.justinjc.com/'
p1761
sg1724
g5
(S'\x07\xda\x08\x0b\x0f\x05\x04\t\x15\xcc'
p1762
tp1763
Rp1764
sg1728
S'CD'
p1765
sa(dp1766
g1722
S'http://www.richardingram.co.uk/2010/08/approaches-to-web-content-strategy/'
p1767
sg1724
g5
(S'\x07\xda\x08\x0b\x0f\x05\x04\t\x15B'
p1768
tp1769
Rp1770
sg1728
S'Approaches to web content strategy | Richard Ingram | Shut the door on your way out Cicero?'
p1771
sa(dp1772
S'link'
p1773
S'http://www.slate.com/id/2263462'
p1774
sS'pubDate'
p1775
g5
(S'\x07\xda\x08\x0b\x0e\x05\x05\x02\xcd\x86'
p1776
tp1777
Rp1778
sS'title'
p1779
S'How black people use Twitter. - By Farhad Manjoo - Slate Magazine'
p1780
sa(dp1781
g1773
S'http://www.visualeconomics.com/budgeting-for-your-newly-divorced-lifestyle/'
p1782
sg1775
g5
(S'\x07\xda\x08\x0b\x0e\x05\x05\x02\xcd\x03'
p1783
tp1784
Rp1785
sg1779
S'Budgeting For Your Newly-Divorced Lifestyle'
p1786
sa(dp1787
g1773
S'http://www.businesscardsonline.com/evolution-of-the-business-card/'
p1788
sg1775
g5
(S'\x07\xda\x08\x0b\x0e\x05\x05\x02\xccs'
p1789
tp1790
Rp1791
sg1779
S'Evolution of The Business Card'
p1792
sa(dp1793
g1773
S'http://www.hongkiat.com/blog/beautiful-minimalist-desktop-wallpapers/'
p1794
sg1775
g5
(S'\x07\xda\x08\x0b\x0e\x05\x05\x02\xcb\xec'
p1795
tp1796
Rp1797
sg1779
S'Beautiful Minimalist Desktop Wallpapers'
p1798
sa(dp1799
g1773
S'http://www.theatlantic.com/science/archive/2010/08/a-bookfuturist-manifesto/61231/'
p1800
sg1775
g5
(S'\x07\xda\x08\x0b\x0e\x05\x05\x02\xcb\x0c'
p1801
tp1802
Rp1803
sg1779
S'A Bookfuturist Manifesto - Science and Tech - The Atlantic'
p1804
sa(dp1805
g1773
S'http://speckyboy.com/2010/08/10/30-creative-and-inspiring-poster-designs/'
p1806
sg1775
g5
(S'\x07\xda\x08\x0b\x0e\x05\x05\x02\xca\x93'
p1807
tp1808
Rp1809
sg1779
S'30+ Creative and Inspiring Poster Designs :Speckyboy Design Magazine'
p1810
sa(dp1811
g1773
S'http://mashable.com/2010/08/11/customer-engagement-style/'
p1812
sg1775
g5
(S'\x07\xda\x08\x0b\x0e\x05\x05\x02\xca\x18'
p1813
tp1814
Rp1815
sg1779
S'HOW TO: Pick the Right Social Media Engagement Style'
p1816
sa(dp1817
g1773
S'http://boltapakistan.pk/blogs/zardari-tolla-attacked-on-geo-tv-and-blocked-the-broadcast-in-karachi.html#readmore'
p1818
sg1775
g5
(S'\x07\xda\x08\x0b\x0e\x05\x05\x02\xc9\x95'
p1819
tp1820
Rp1821
sg1779
S'Zardari Tolla Attacked On Geo TV and Blocked the Broadcast in Karachi'
p1822
sa(dp1823
g1773
S'http://techapalooza-2010.iu1.wikispaces.net/'
p1824
sg1775
g5
(S'\x07\xda\x08\x0b\x0e\x05\x05\x02\xc9V'
p1825
tp1826
Rp1827
sg1779
S'Techapalooza'
p1828
sa(dp1829
g1773
S'http://lifehacker.com/5610032/a-guide-to-organizing-your-android-home-screen'
p1830
sg1775
g5
(S'\x07\xda\x08\x0b\x0e\x05\x05\x02\xc8\xea'
p1831
tp1832
Rp1833
sg1779
S'A Guide to Organizing Your Android Home Screen'
p1834
sa(dp1835
S'link'
p1836
S'http://www.slate.com/id/2263462/'
p1837
sS'pubDate'
p1838
g5
(S"\x07\xda\x08\x0b\r\x05\x04\x0c\xd5'"
p1839
tp1840
Rp1841
sS'title'
p1842
S'How black people use Twitter. - By Farhad Manjoo - Slate Magazine'
p1843
sa(dp1844
g1836
S'http://flyosity.com/application-design/your-design-is-wrong-and-heres-why.php'
p1845
sg1838
g5
(S'\x07\xda\x08\x0b\r\x05\x04\x0c\xd4k'
p1846
tp1847
Rp1848
sg1842
S"Your Design Is Wrong (And Here's Why) ~ Flyosity by Mike Rundle"
p1849
sa(dp1850
g1836
S'http://globalthoughtz.com/2010/08/sex-is-one-of-the-most-popular-wikipedia-articles-infographic/'
p1851
sg1838
g5
(S'\x07\xda\x08\x0b\r\x05\x04\x0c\xd3\xbb'
p1852
tp1853
Rp1854
sg1842
S'Sex is one of the most popular Wikipedia Articles [Infographic]'
p1855
sa(dp1856
g1836
S'http://www.fixr.com/infographics/us-home-improvement-industry-at-a-glance.html'
p1857
sg1838
g5
(S'\x07\xda\x08\x0b\r\x05\x04\x0ch\xcd'
p1858
tp1859
Rp1860
sg1842
S'Inside Look At The US Home Improvement Industry (Infographic)'
p1861
sa(dp1862
g1836
S'http://bergann.livejournal.com/461982.html'
p1863
sg1838
g5
(S'\x07\xda\x08\x0b\r\x05\x04\x0ch\x0b'
p1864
tp1865
Rp1866
sg1842
S"Insanity doesn't run in my family. - Fic - Sherlock; No Shame in Being Crazy"
p1867
sa(dp1868
g1836
S'http://www.viget.com/inspire/jquery-image-scroller-plugin/'
p1869
sg1838
g5
(S'\x07\xda\x08\x0b\r\x05\x04\x0cgH'
p1870
tp1871
Rp1872
sg1842
S'jQuery Image Scroller Plugin | Viget Inspire'
p1873
sa(dp1874
g1836
S'http://css4design.com/200-garcons-a-suivre-sur-twitter'
p1875
sg1838
g5
(S'\x07\xda\x08\x0b\r\x05\x04\x0cf\xff'
p1876
tp1877
Rp1878
sg1842
S'200+ gar\xe7ons \xe0 suivre sur Twitter'
p1879
sa(dp1880
g1836
S'http://codesnipp.it/'
p1881
sg1838
g5
(S'\x07\xda\x08\x0b\r\x05\x04\x0cf|'
p1882
tp1883
Rp1884
sg1842
S'codesnipp.it : share your code snippets : follow your favorite developers : find coding help!'
p1885
sa(dp1886
S'link'
p1887
S'http://hackthis.livejournal.com/560503.html'
p1888
sS'pubDate'
p1889
g5
(S'\x07\xda\x08\x0b\x0c\x05\x03\r\x1c\x1b'
p1890
tp1891
Rp1892
sS'title'
p1893
S"hackthis: Inception: just because a man visits another man doesn't mean they're doing anything illegal (yet)"
p1894
sa(dp1895
g1887
S'http://premiumsoftware.net/cleditor/'
p1896
sg1889
g5
(S'\x07\xda\x08\x0b\x0c\x05\x03\r\x1b\xb1'
p1897
tp1898
Rp1899
sg1893
S'CLEditor - WYSIWYG HTML Editor'
p1900
sa(dp1901
g1887
S'http://quarter4.info/create/22-wordpress-customize-hack.html'
p1902
sg1889
g5
(S'\x07\xda\x08\x0b\x0c\x05\x03\r\x1bz'
p1903
tp1904
Rp1905
sg1893
S'22?WordPress ?????? ???'
p1906
sa(dp1907
g1887
S'http://programming-puzzler.blogspot.com/2010/08/racket-vs-clojure.html'
p1908
sg1889
g5
(S'\x07\xda\x08\x0b\x0c\x05\x03\r\x1bB'
p1909
tp1910
Rp1911
sg1893
S'Thoughts on Programming: Racket vs. Clojure'
p1912
sa(dp1913
g1887
S'http://mashable.com/2010/08/11/facebook-foursquare/'
p1914
sg1889
g5
(S'\x07\xda\x08\x0b\x0c\x05\x03\r\x1at'
p1915
tp1916
Rp1917
sg1893
S"Is Facebook Foursquare's Enemy? It's Complicated"
p1918
sa(dp1919
g1887
S'http://arstechnica.com/telecom/news/2010/08/a-paper-trail-of-betrayal-googles-net-neutrality-collapse.ars'
p1920
sg1889
g5
(S'\x07\xda\x08\x0b\x0c\x05\x03\r\x19\xe2'
p1921
tp1922
Rp1923
sg1893
S"A paper trail of betrayal: Google's net neutrality collapse"
p1924
sa(dp1925
g1887
S'http://t3n.de/news/web-experience-management-eigene-website-facebook-276909/'
p1926
sg1889
g5
(S'\x07\xda\x08\x0b\x0c\x05\x03\r\x19J'
p1927
tp1928
Rp1929
sg1893
S'Web Experience Management: Wie die eigene Website und Facebook sich erg\xe4nzen \xbb t3n News'
p1930
sa(dp1931
g1887
S'http://resources.savedelete.com/25-best-ipad-application-websites-with-design-inspiration.html'
p1932
sg1889
g5
(S'\x07\xda\x08\x0b\x0c\x05\x03\r\x18\xc0'
p1933
tp1934
Rp1935
sg1893
S'25 Best iPad Application Websites With Design Inspiration'
p1936
sa(dp1937
g1887
S'http://gizmodo.com/5609633/10-add+ons-you-have-to-know-about-for-google-chrome'
p1938
sg1889
g5
(S'\x07\xda\x08\x0b\x0c\x05\x03\r\x18\x8d'
p1939
tp1940
Rp1941
sg1893
S'10 Add-Ons You Have to Know About For Google Chrome'
p1942
sa(dp1943
g1887
S'http://kronikle.kidrobot.com/pencil-tip-micro-sculptures-by-dalton-ghetti/'
p1944
sg1889
g5
(S'\x07\xda\x08\x0b\x0c\x05\x03\r\x18T'
p1945
tp1946
Rp1947
sg1893
S"Pencil Tip Micro Sculptures By Dalton Ghetti:: Kidrobot's Blog, The KRonikle"
p1948
sa(dp1949
g1887
S'http://cd.justinjc.com/1h30m'
p1950
sg1889
g5
(S'\x07\xda\x08\x0b\x0c\x05\x03\r\x18\x1e'
p1951
tp1952
Rp1953
sg1893
S'CD: 1h29m54s'
p1954
sa(dp1955
g1887
S'http://cyclehire.tomtaylor.co.uk/'
p1956
sg1889
g5
(S'\x07\xda\x08\x0b\x0c\x05\x03\r\x17\xcb'
p1957
tp1958
Rp1959
sg1893
S'London Cycle Hire Explorer'
p1960
sa(dp1961
g1887
S'http://rudd-o.com/en/linux-and-free-software/a-better-way-to-block-brute-force-attacks-on-your-ssh-server'
p1962
sg1889
g5
(S'\x07\xda\x08\x0b\x0c\x05\x03\r\x17R'
p1963
tp1964
Rp1965
sg1893
S'A better way to block brute force attacks on your SSH server ? Rudd-O.com'
p1966
sa(dp1967
S'link'
p1968
S'http://www.palladiumboots.com/cgi-bin/palladium/store/product_detail.html?id=9HAviMVJ&mv_arg=x&pid=02352:261'
p1969
sS'pubDate'
p1970
g5
(S'\x07\xda\x08\x0b\x0b\x05\x04\x0f\x07\xbb'
p1971
tp1972
Rp1973
sS'title'
p1974
S'Palladium Boots - Pampa Hi Canvas: stonewashed dk khaki'
p1975
sa(dp1976
g1968
S'http://www.bloomberg.com/news/2010-08-11/u-s-is-bankrupt-and-we-don-t-even-know-commentary-by-laurence-kotlikoff.html'
p1977
sg1970
g5
(S'\x07\xda\x08\x0b\x0b\x05\x04\x0f\x06\xf9'
p1978
tp1979
Rp1980
sg1974
S"U.S. Is Bankrupt and We Don't Even Know: Laurence Kotlikoff - Bloomberg"
p1981
sa(dp1982
g1968
S'http://www.eff.org/deeplinks/2010/08/google-verizon-netneutrality'
p1983
sg1970
g5
(S'\x07\xda\x08\x0b\x0b\x05\x04\x0f\x05\xf4'
p1984
tp1985
Rp1986
sg1974
S"A Review of Verizon and Google's Net Neutrality Proposal | Electronic Frontier Foundation"
p1987
sa(dp1988
S'link'
p1989
S'http://intraligilaw.ca/skiing-accidents.php'
p1990
sS'pubDate'
p1991
g5
(S'\x07\xda\x08\x0b\n\x05\x04\x06]A'
p1992
tp1993
Rp1994
sS'title'
p1995
S'Skiing Accidents | Personal Injury Lawyer | Injury Lawyer'
p1996
sa(dp1997
g1989
S'http://thechive.com/2010/08/11/a-word-from-jenny-16-photos/'
p1998
sg1991
g5
(S'\x07\xda\x08\x0b\n\x05\x04\x06\\I'
p1999
tp2000
Rp2001
sg1995
S'chive presents new photos of jenny, elyse porterfield explains hoax theCHIVE'
p2002
sa(dp2003
g1989
S'http://mashable.com/2010/08/10/safari-extensions-roundup/'
p2004
sg1991
g5
(S'\x07\xda\x08\x0b\n\x05\x04\x06[\xa9'
p2005
tp2006
Rp2007
sg1995
S'15 Awesome and Useful Safari Extensions'
p2008
sa(dp2009
g1989
S'http://technologytosoftware.com/free-e-books-blogger-should-read.html'
p2010
sg1991
g5
(S'\x07\xda\x08\x0b\n\x05\x04\x06[i'
p2011
tp2012
Rp2013
sg1995
S'25+ Useful Free E-books Every Blogger Should Read'
p2014
sa(dp2015
g1989
S'http://mashable.com/2010/08/11/2010-social-networking-map/'
p2016
sg1991
g5
(S'\x07\xda\x08\x0b\n\x05\x04\x06[\x00'
p2017
tp2018
Rp2019
sg1995
S"XKCD-Inspired Cartoon Maps the World's Social Networks [PIC]"
p2020
sa(dp2021
g1989
S'http://www.itmedia.co.jp/news/articles/1008/11/news071.html'
p2022
sg1991
g5
(S'\x07\xda\x08\x0b\n\x05\x04\x06Z\xa0'
p2023
tp2024
Rp2025
sg1995
S'Twitter?????????????????????? - ITmedia News'
p2026
sa(dp2027
g1989
S'http://iit.bloomu.edu/vthc/powerpoint/basics/docs.htm'
p2028
sg1991
g5
(S'\x07\xda\x08\x0b\n\x05\x04\x06Y\x90'
p2029
tp2030
Rp2031
sg1995
S'powerpoint tutorial'
p2032
sa(dp2033
S'link'
p2034
S'http://www.campaignmonitor.com/blog/post/3234/designing-campaign-monitor-ios-icons/'
p2035
sS'pubDate'
p2036
g5
(S'\x07\xda\x08\x0b\t\x05\x05\x01]\x8d'
p2037
tp2038
Rp2039
sS'title'
p2040
S'Designing the new Campaign Monitor iOS icons - Blog - Campaign Monitor'
p2041
sa(dp2042
g2034
S'http://www.smashingmagazine.com/2010/08/11/the-future-of-the-internet/'
p2043
sg2036
g5
(S'\x07\xda\x08\x0b\t\x05\x05\x01]\x02'
p2044
tp2045
Rp2046
sg2040
S'The Future of the Internet - Smashing Magazine'
p2047
sa(dp2048
g2034
S'http://celestinechua.com/blog/inspirational-songs/'
p2049
sg2036
g5
(S'\x07\xda\x08\x0b\t\x05\x05\x01\\d'
p2050
tp2051
Rp2052
sg2040
S'http://celestinechua.com/blog/inspirational-songs'
p2053
sa(dp2054
g2034
S'http://www.changeofaddress.org/blog/2010/10-tiny-houses-for-simpler-living/'
p2055
sg2036
g5
(S'\x07\xda\x08\x0b\t\x05\x05\x01[e'
p2056
tp2057
Rp2058
sg2040
S'http://www.changeofaddress.org/blog/2010/10-tiny-houses-for-simpler-living/'
p2059
sa(dp2060
g2034
S'http://pro-netzneutralitaet.de/'
p2061
sg2036
g5
(S'\x07\xda\x08\x0b\t\x05\x05\x01Z\xcd'
p2062
tp2063
Rp2064
sg2040
S'Initiative Pro Netzneutralit\xe4t - Die Neutralit\xe4t im Netz sichern!'
p2065
sa(dp2066
S'link'
p2067
S'http://www.bbc.co.uk/news/technology-10925456'
p2068
sS'pubDate'
p2069
g5
(S'\x07\xda\x08\x0b\x08\x05\x03\n\xcej'
p2070
tp2071
Rp2072
sS'title'
p2073
S'BBC News - Why do we all use Qwerty keyboards?'
p2074
sa(dp2075
g2067
S'http://www.arnoldhernandez.com/'
p2076
sg2069
g5
(S'\x07\xda\x08\x0b\x08\x05\x03\n\xce6'
p2077
tp2078
Rp2079
sg2073
S'lawyer in san diego'
p2080
sa(dp2081
g2067
S'http://www.howtogeek.com/howto/25319/complete-guide-to-maximizing-your-android-phones-battery-life/'
p2082
sg2069
g5
(S'\x07\xda\x08\x0b\x08\x05\x03\n\xcd\xdc'
p2083
tp2084
Rp2085
sg2073
S'Complete Guide to Maximizing Your Android Phone?s Battery Life - How-To Geek'
p2086
sa(dp2087
g2067
S'http://www.mindfly.com/blog/post/2010/07/28/Getting-Vertical-With-CSS.aspx'
p2088
sg2069
g5
(S'\x07\xda\x08\x0b\x08\x05\x03\n\xcd_'
p2089
tp2090
Rp2091
sg2073
S'Getting Vertical With CSS'
p2092
sa(dp2093
S'link'
p2094
S'http://www.onlineuniversities.com/blog/2010/07/11-literary-holidays-that-every-book-lover-should-know/'
p2095
sS'pubDate'
p2096
g5
(S'\x07\xda\x08\x0b\x07\x05\x05\x02<H'
p2097
tp2098
Rp2099
sS'title'
p2100
S'11 Literary Holidays That Every Book Lover Should Know | Online Universities'
p2101
sa(dp2102
g2094
S'http://techcrunch.com/2010/08/11/elyse-porterfield/'
p2103
sg2096
g5
(S'\x07\xda\x08\x0b\x07\x05\x05\x02;\xc2'
p2104
tp2105
Rp2106
sg2100
S'Confirmed: HOPA Dry Erase Girl Is A Hoax, Identity Revealed'
p2107
sa(dp2108
g2094
S'http://habrahabr.ru/blogs/webdev/101464/'
p2109
sg2096
g5
(S'\x07\xda\x08\x0b\x07\x05\x05\x02;z'
p2110
tp2111
Rp2112
sg2100
S'?????????? ? html-??????? / Web-?????????? / ?????????'
p2113
sa(dp2114
g2094
S'http://mashable.com/2010/08/11/social-gaming-business/'
p2115
sg2096
g5
(S'\x07\xda\x08\x0b\x07\x05\x05\x02;('
p2116
tp2117
Rp2118
sg2100
S'Why Games Are the Killer App for Social Networks'
p2119
sa(dp2120
g2094
S'http://savedelete.com/watch-xvid-avi-movies-on-apple-ipad.html'
p2121
sg2096
g5
(S'\x07\xda\x08\x0b\x07\x05\x05\x02:\xaa'
p2122
tp2123
Rp2124
sg2100
S'How To Watch Xvid (AVI) Movies On Your Apple iPad For Free'
p2125
sa(dp2126
g2094
S'http://www.webdesignerdepot.com/2010/08/20-new-apps-and-websites-for-designers/'
p2127
sg2096
g5
(S'\x07\xda\x08\x0b\x07\x05\x05\x02\x1dO'
p2128
tp2129
Rp2130
sg2100
S'20+ New Apps and Websites for Designers | Webdesigner Depot'
p2131
sa(dp2132
g2094
S'http://hotnewshome.com/technology/grindr-iphone-app-to-find-gay-men-with-their-stats.html'
p2133
sg2096
g5
(S'\x07\xda\x08\x0b\x07\x05\x05\x01\xc0\xd0'
p2134
tp2135
Rp2136
sg2100
S'Grindr : iPhone App to Find Gay Men with their Stats'
p2137
sa(dp2138
S'link'
p2139
S'http://kanemotilevel.com/add/kizi242.html'
p2140
sS'pubDate'
p2141
g5
(S'\x07\xda\x08\x0b\x06\x05\x03\x07\x04('
p2142
tp2143
Rp2144
sS'title'
p2145
S'?????????????????? - ???????????????????'
p2146
sa(dp2147
g2139
S'http://php-ru.info/servis/39f'
p2148
sg2141
g5
(S'\x07\xda\x08\x0b\x06\x05\x03\x06,V'
p2149
tp2150
Rp2151
sg2145
S'More than 1000 Free Online Flash Games'
p2152
sa(dp2153
S'link'
p2154
S'http://celestinechua.com/blog/inspirational-songs'
p2155
sS'pubDate'
p2156
g5
(S'\x07\xda\x08\x0b\x05\x05\x03\n\x84\xe5'
p2157
tp2158
Rp2159
sS'title'
p2160
S'http://celestinechua.com/blog/inspirational-songs'
p2161
sa(dp2162
g2154
S'http://creativefan.com/15-way-cool-and-useful-jquery-plugins-for-web-design-and-development/'
p2163
sg2156
g5
(S'\x07\xda\x08\x0b\x05\x05\x03\n\x84\x11'
p2164
tp2165
Rp2166
sg2160
S'15 Way Cool and Useful jQuery Plugins For Web Design and Development | CreativeFan'
p2167
sa(dp2168
S'link'
p2169
S'http://inkd.com/free-templates'
p2170
sS'pubDate'
p2171
g5
(S'\x07\xda\x08\x0b\x04\x05\x05\x02Qo'
p2172
tp2173
Rp2174
sS'title'
p2175
S'The first marketplace for buying and selling print and brochure designs | Inkd'
p2176
sa(dp2177
g2169
S'http://smashinghub.com/15-absolutely-amazing-digital-matte-painting.htm'
p2178
sg2171
g5
(S'\x07\xda\x08\x0b\x04\x05\x05\x01\xe8G'
p2179
tp2180
Rp2181
sg2175
S'15+Absolutely+Amazing+Examples+of+Digital+Matte+Painting'
p2182
sa(dp2183
S'link'
p2184
S'http://www.boingboing.net/2010/08/11/1906.html'
p2185
sS'pubDate'
p2186
g5
(S'\x07\xda\x08\x0b\x03\x05\x05\x00\xbaM'
p2187
tp2188
Rp2189
sS'title'
p2190
S'1906: vintage color photos of Europe - Boing Boing'
p2191
sa(dp2192
g2184
S'http://webdesignledger.com/resources/7-useful-resources-to-help-you-learn-html5'
p2193
sg2186
g5
(S'\x07\xda\x08\x0b\x03\x05\x05\x00\xa39'
p2194
tp2195
Rp2196
sg2190
S'7 Useful Resources to Help You Learn HTML5 | Resources'
p2197
sa(dp2198
g2184
S'http://foxxcub.livejournal.com/671009.html'
p2199
sg2186
g5
(S'\x07\xda\x08\x0b\x03\x05\x05\x00\xa2\x10'
p2200
tp2201
Rp2202
sg2190
S"foxxcub: Fic: If You're Just Playing Along, I Promise We'll Be Fine"
p2203
sa(dp2204
g2184
S'http://globalthoughtz.com/2010/08/pcs-are-better-than-macs-says-microsoft/'
p2205
sg2186
g5
(S'\x07\xda\x08\x0b\x03\x05\x05\x00\xa1\xa2'
p2206
tp2207
Rp2208
sg2190
S'Microsoft Says :PCs are Better Than Macs'
p2209
sa(dp2210
g2184
S'http://www.farpointalliance.com/'
p2211
sg2186
g5
(S'\x07\xda\x08\x0b\x03\x05\x05\x00\xa1\x01'
p2212
tp2213
Rp2214
sg2190
S'ONLINE MARKETING EXPERTS: The FarPoint Alliance'
p2215
sa(dp2216
g2184
S'http://www.mediainfo.in/NewsServ?method=newsdetailshow&&newsid=995'
p2217
sg2186
g5
(S'\x07\xda\x08\x0b\x03\x05\x05\x00\x9dp'
p2218
tp2219
Rp2220
sg2190
S'Bollyood News - With Peepli Live, T-Series and Aamir Khan renew their longstanding equation'
p2221
sa(dp2222
g2184
S'http://www.macobserver.com/tmo/article/linux_foundation_chief_apples_app_store_business_model_unsustainable/'
p2223
sg2186
g5
(S'\x07\xda\x08\x0b\x03\x05\x05\x00.%'
p2224
tp2225
Rp2226
sg2190
S'Linux Foundation Chief: Apple?s App Store Business Model Unsustainable | News | The Mac Observer'
p2227
sa(dp2228
S'link'
p2229
S'http://mail.google.com/support/bin/answer.py?hl=en&ctx=mail&answer=184497'
p2230
sS'pubDate'
p2231
g5
(S'\x07\xda\x08\x0b\x02\x05\x04\x06.\xde'
p2232
tp2233
Rp2234
sS'title'
p2235
S"Overview of what's new in Gmail - Gmail Help"
p2236
sa(dp2237
g2229
S'http://articles.sitepoint.com/article/5-wordpress-frameworks-to-jumpstart-your-theme-designs'
p2238
sg2231
g5
(S'\x07\xda\x08\x0b\x02\x05\x04\x06\x0b\xe4'
p2239
tp2240
Rp2241
sg2235
S'5 WordPress Frameworks to Jump-start Your Theme Designs'
p2242
sa(dp2243
S'link'
p2244
S'http://www.satellitedish.org/blog/2010/10-must-have-gadgets-for-the-school-year/'
p2245
sS'pubDate'
p2246
g5
(S'\x07\xda\x08\x0b\x01\x05\x04\x0c\x8eY'
p2247
tp2248
Rp2249
sS'title'
p2250
S'Satellite Dish: 10 Must-Have Gadgets for the School Year'
p2251
sa(dp2252
S'link'
p2253
S'http://www.rbnz.govt.nz/'
p2254
sS'pubDate'
p2255
g5
(S'\x07\xda\x08\x0b\x00\x05\x04\x0bQ\xe2'
p2256
tp2257
Rp2258
sS'title'
p2259
S'Reserve Bank of New Zealand'
p2260
sa(dp2261
S'link'
p2262
S'http://sorrynotsorry.livejournal.com/3290.html'
p2263
sS'pubDate'
p2264
g5
(S'\x07\xda\x08\n\x17\x05\x05\x06\xf2f'
p2265
tp2266
Rp2267
sS'title'
p2268
S"I'm Sorry I'm Not Sorry - Consequence in Lines"
p2269
sa(dp2270
g2262
S'http://coliss.com/articles/build-websites/operation/work/template-html5boilerplate.html'
p2271
sg2264
g5
(S'\x07\xda\x08\n\x17\x05\x05\x06\xf2\r'
p2272
tp2273
Rp2274
sg2268
S'???????????HTML5+CSS3+jQuery??????? -HTML5 Boilerplate | ???'
p2275
sa(dp2276
g2262
S'http://octoba.net/archives/20100810-android-ronten-2.html'
p2277
sg2264
g5
(S'\x07\xda\x08\n\x17\x05\x05\x06\xf1v'
p2278
tp2279
Rp2280
sg2268
S'????????? : ??????????????????'
p2281
sa(dp2282
g2262
S'http://mashable.com/2010/08/10/twitter-official-share-buttons/'
p2283
sg2264
g5
(S'\x07\xda\x08\n\x17\x05\x05\x06\xf1\x1f'
p2284
tp2285
Rp2286
sg2268
S'Twitter Launching Official Tweet Buttons This Week [EXCLUSIVE]'
p2287
sa(dp2288
S'link'
p2289
S'http://coliss.com/articles/build-websites/operation/css/css3-fixing-the-background-bleed.html'
p2290
sS'pubDate'
p2291
g5
(S'\x07\xda\x08\n\x16\x05\x03\x0eF '
p2292
tp2293
Rp2294
sS'title'
p2295
S'[CSS]Safari??????????????????????? | ???'
p2296
sa(dp2297
g2289
S'http://www.sorted.org.nz/life-stages/kids-and-money'
p2298
sg2291
g5
(S'\x07\xda\x08\n\x16\x05\x03\x0eE\xa4'
p2299
tp2300
Rp2301
sg2295
S'Welcome to Sorted Kids & Money | Sorted'
p2302
sa(dp2303
g2289
S'http://d.hatena.ne.jp/shi3z/20100810/1281466139'
p2304
sg2291
g5
(S'\x07\xda\x08\n\x16\x05\x03\x0eD\xe1'
p2305
tp2306
Rp2307
sg2295
S'"?????RPG"??????????????????????????? - Keep Crazy;shi3z???'
p2308
sa(dp2309
g2289
S'http://toshiiy.blog22.fc2.com/blog-entry-118.html'
p2310
sg2291
g5
(S'\x07\xda\x08\n\x16\x05\x03\x0eD\x8b'
p2311
tp2312
Rp2313
sg2295
S'??????????????????????? | ????????'
p2314
sa(dp2315
g2289
S'http://www.makingcents.com.au/'
p2316
sg2291
g5
(S'\x07\xda\x08\n\x16\x05\x03\x0eD/'
p2317
tp2318
Rp2319
sg2295
S'Making Cents, teacher resources, finance'
p2320
sa(dp2321
g2289
S'http://rbnz.govt.nz/index.html'
p2322
sg2291
g5
(S'\x07\xda\x08\n\x16\x05\x03\x0eC\xbf'
p2323
tp2324
Rp2325
sg2295
S'Reserve Bank of New Zealand'
p2326
sa(dp2327
S'link'
p2328
S'http://readingmonkey.blog45.fc2.com/blog-entry-402.html'
p2329
sS'pubDate'
p2330
g5
(S'\x07\xda\x08\n\x15\x05\x04\x0bb\x85'
p2331
tp2332
Rp2333
sS'title'
p2334
S'??????????????????????????? ???Classic: between / beyond readers'
p2335
sa(dp2336
S'link'
p2337
S'http://mashable.com/2010/08/10/twitter-fast-follow/'
p2338
sS'pubDate'
p2339
g5
(S'\x07\xda\x08\n\x14\x05\x04\r\x12\x85'
p2340
tp2341
Rp2342
sS'title'
p2343
S'Now You Can Follow Twitter Users Without an Account'
p2344
sa(dp2345
S'link'
p2346
S'http://www.iretireearly.com/starting-an-online-business.html'
p2347
sS'pubDate'
p2348
g5
(S'\x07\xda\x08\n\x13\x05\x04\x0b`\x98'
p2349
tp2350
Rp2351
sS'title'
p2352
S'Starting an Online Business'
p2353
sa(dp2354
S'link'
p2355
S'http://html5boilerplate.com/'
p2356
sS'pubDate'
p2357
g5
(S'\x07\xda\x08\n\x12\x05\x05\x00\xe0\xa9'
p2358
tp2359
Rp2360
sS'title'
p2361
S'HTML5 Boilerplate - A rock-solid default for HTML5 awesome.'
p2362
sa(dp2363
g2355
S'http://news.cnet.com/8301-13577_3-20013223-36.html'
p2364
sg2357
g5
(S'\x07\xda\x08\n\x12\x05\x05\x00\xe0\x0b'
p2365
tp2366
Rp2367
sg2361
S"Facebook's Foursquare competitor is imminent | The Social - CNET News"
p2368
sa(dp2369
g2355
S'http://www.wired.com/epicenter/2010/08/why-google-became-a-carrier-humping-net-neutrality-surrender-monkey/'
p2370
sg2357
g5
(S'\x07\xda\x08\n\x12\x05\x05\x00\xde\xb8'
p2371
tp2372
Rp2373
sg2361
S'Why Google Became A Carrier-Humping, Net Neutrality Surrender Monkey (UPDATED) | Epicenter\xa0| Wired.com'
p2374
sa(dp2375
g2355
S'http://www.bbc.co.uk/news/science-environment-10925841'
p2376
sg2357
g5
(S'\x07\xda\x08\n\x12\x05\x05\x00\xde^'
p2377
tp2378
Rp2379
sg2361
S"BBC News - Brain works more like internet than 'top down' company"
p2380
sa(dp2381
g2355
S'http://www.wired.com/epicenter/2010/08/why-google-became-a-carrier-humping-net-neutrality-surrender-monkey/all/1'
p2382
sg2357
g5
(S'\x07\xda\x08\n\x12\x05\x05\x00\xdd#'
p2383
tp2384
Rp2385
sg2361
S'Why Google Became A Carrier-Humping, Net Neutrality Surrender Monkey (UPDATED) | Epicenter | Wired.com'
p2386
sa(dp2387
S'link'
p2388
S'http://memecode.com/phoneable.php'
p2389
sS'pubDate'
p2390
g5
(S'\x07\xda\x08\n\x11\x05\x05\x08\x06S'
p2391
tp2392
Rp2393
sS'title'
p2394
S'MemeCode - PhoneAble'
p2395
sa(dp2396
g2388
S'http://www.unlimitednovelty.com/2010/08/multithreaded-rails-is-generally-better.html'
p2397
sg2390
g5
(S'\x07\xda\x08\n\x11\x05\x05\x08\x06\x1f'
p2398
tp2399
Rp2400
sg2394
S'Unlimited Novelty: Multithreaded Rails is generally better than Async Rails, and Rainbows is cooler than Node'
p2401
sa(dp2402
g2388
S'http://blog.okcupid.com/index.php/dont-be-ugly-by-accident/'
p2403
sg2390
g5
(S'\x07\xda\x08\n\x11\x05\x05\x08\x05\xd4'
p2404
tp2405
Rp2406
sg2394
S'Don?t Be Ugly By Accident! \xab OkTrends'
p2407
sa(dp2408
g2388
S'http://www.rackspace.com/apps/blog/2010/08/business_email_usage_statistics/'
p2409
sg2390
g5
(S'\x07\xda\x08\n\x11\x05\x05\x08\x05\x9d'
p2410
tp2411
Rp2412
sg2394
S'Email Usage Statistics across U.S. (infographic)'
p2413
sa(dp2414
g2388
S'http://www.1stwebdesigner.com/resources/web-development-screencasts/'
p2415
sg2390
g5
(S'\x07\xda\x08\n\x11\x05\x05\x08\x05P'
p2416
tp2417
Rp2418
sg2394
S'30+ Killer Web Development Screencasts to fine tune your skills'
p2419
sa(dp2420
g2388
S'http://lifehacker.com/5608715/battle-of-the-streaming-music-services'
p2421
sg2390
g5
(S'\x07\xda\x08\n\x11\x05\x05\x08\x04\x07'
p2422
tp2423
Rp2424
sg2394
S'Battle of the Streaming Music Services'
p2425
sa(dp2426
g2388
S'http://www.robotmonsterghost.com/100/'
p2427
sg2390
g5
(S'\x07\xda\x08\n\x11\x05\x05\x08\x03\xa2'
p2428
tp2429
Rp2430
sg2394
S'Robot, Monster & Ghost Co.'
p2431
sa(dp2432
g2388
S'http://bigbucketsoftware.com/theincident/'
p2433
sg2390
g5
(S'\x07\xda\x08\n\x11\x05\x05\x08\x03R'
p2434
tp2435
Rp2436
sg2394
S'THE INCIDENT - a fast-paced, retro-style action game for iPhone and iPad'
p2437
sa(dp2438
g2388
S'http://richland.k12.la.us/flip.html'
p2439
sg2390
g5
(S'\x07\xda\x08\n\x11\x05\x05\x08\x02\x86'
p2440
tp2441
Rp2442
sg2394
S'Richland Parish School Board'
p2443
sa(dp2444
S'link'
p2445
S'http://lifehacker.com/5609349/phoneable-syncs-your-iphone-with-multiple-itunes-libraries'
p2446
sS'pubDate'
p2447
g5
(S'\x07\xda\x08\n\x10\x05\x05\x07B\xc2'
p2448
tp2449
Rp2450
sS'title'
p2451
S'PhoneAble Syncs Your iPhone with Multiple iTunes Libraries'
p2452
sa(dp2453
g2445
S'http://typedia.com/blog/post/cure-for-the-common-webfont-part-1-alternatives-to-arial-and-helvetica/'
p2454
sg2447
g5
(S'\x07\xda\x08\n\x10\x05\x05\x07BU'
p2455
tp2456
Rp2457
sg2451
S'Typedia: Blog: Cure for the Common Webfont, Part 1: Alternatives to Arial (and Helvetica)'
p2458
sa(dp2459
g2445
S'http://catastrophemonitor.com/public_html/article.php?story=20100810115151720'
p2460
sg2447
g5
(S'\x07\xda\x08\n\x10\x05\x05\x07A\xd2'
p2461
tp2462
Rp2463
sg2451
S'Catastrophic Moscow smog from wildfires eases'
p2464
sa(dp2465
g2445
S'http://sixrevisions.com/web_design/the-art-of-distinction-in-web-design/'
p2466
sg2447
g5
(S'\x07\xda\x08\n\x10\x05\x05\x07A\x95'
p2467
tp2468
Rp2469
sg2451
S'The Art of Distinction in Web Design'
p2470
sa(dp2471
g2445
S'http://www.gameranx.com/features/id/750/article/halo-reach-wallpapers-in-hd/'
p2472
sg2447
g5
(S'\x07\xda\x08\n\x10\x05\x05\x07AL'
p2473
tp2474
Rp2475
sg2451
S'Halo Reach Wallpapers'
p2476
sa(dp2477
g2445
S'http://www.woothemes.com/2010/08/woocons1/'
p2478
sg2447
g5
(S'\x07\xda\x08\n\x10\x05\x05\x07A\x05'
p2479
tp2480
Rp2481
sg2451
S'WooCons #1: 170 Free Web Icons | WooThemes'
p2482
sa(dp2483
g2445
S'http://www.businessinsider.com/4chan-founder-moots-weird-testimony-in-sarah-palin-email-hacking-trial-2010-8'
p2484
sg2447
g5
(S'\x07\xda\x08\n\x10\x05\x05\x07@\xc7'
p2485
tp2486
Rp2487
sg2451
S"4Chan Founder Moot's Weird Testimony In Sarah Palin Email Hacking Trial"
p2488
sa(dp2489
g2445
S'http://www.webdesignish.com/14-highly-useful-tutorials-to-create-marvelous-posters.html'
p2490
sg2447
g5
(S'\x07\xda\x08\n\x10\x05\x05\x07@\x7f'
p2491
tp2492
Rp2493
sg2451
S'14 Highly Useful Tutorials To Create Marvelous Posters'
p2494
sa(dp2495
g2445
S'http://blogs.hbr.org/cs/2010/08/what_google_could_learn_from_p.html'
p2496
sg2447
g5
(S'\x07\xda\x08\n\x10\x05\x05\x07?\x98'
p2497
tp2498
Rp2499
sg2451
S'What Google Could Learn From Pixar - Peter Sims - The Conversation - Harvard Business Review'
p2500
sa(dp2501
g2445
S'http://naldzgraphics.net/inspirations/web-design-inspiration-44-eye-catching-slideshows/'
p2502
sg2447
g5
(S'\x07\xda\x08\n\x10\x05\x05\x07?X'
p2503
tp2504
Rp2505
sg2451
S'Web Design Inspiration: 44 Eye-Catching Slideshows'
p2506
sa(dp2507
g2445
S'http://mashable.com/2010/08/10/personalized-news-stream/'
p2508
sg2447
g5
(S'\x07\xda\x08\n\x10\x05\x05\x07>\x98'
p2509
tp2510
Rp2511
sg2451
S'How News Consumption is Shifting to the Personalized Social News Stream'
p2512
sa(dp2513
g2445
S'http://pinktentacle.com/2010/08/vintage-tokyo-subway-manner-posters/'
p2514
sg2447
g5
(S'\x07\xda\x08\n\x10\x05\x05\x07>U'
p2515
tp2516
Rp2517
sg2451
S'Vintage Tokyo subway manner posters ::: Pink Tentacle'
p2518
sa(dp2519
g2445
S'http://www.intac.net/a-breakdown-of-web-designers/'
p2520
sg2447
g5
(S'\x07\xda\x08\n\x10\x05\x05\x07=\xdd'
p2521
tp2522
Rp2523
sg2451
S'A Breakdown of Web Designers'
p2524
sa(dp2525
g2445
S'http://www.premier-holidays.com/info/5_surprisingly_niche_airlines.aspx'
p2526
sg2447
g5
(S'\x07\xda\x08\n\x10\x05\x05\x07=\x91'
p2527
tp2528
Rp2529
sg2451
S'Premier Holidays : 5 Surprisingly Niche Airlines'
p2530
sa(dp2531
S'link'
p2532
S'http://mashable.com/2010/08/10/twitter-deceased-account/'
p2533
sS'pubDate'
p2534
g5
(S'\x07\xda\x08\n\x0f\x05\x04\x0cY\x0b'
p2535
tp2536
Rp2537
sS'title'
p2538
S'What Happens to Your Twitter Account When You Die?'
p2539
sa(dp2540
g2532
S'http://www.nytimes.com/2010/08/08/business/08consume.html?_r=1'
p2541
sg2534
g5
(S'\x07\xda\x08\n\x0f\x05\x04\x0cX\xce'
p2542
tp2543
Rp2544
sg2538
S'Consumers Find Ways to Spend Less and Find Happiness - NYTimes.com'
p2545
sa(dp2546
g2532
S'http://tutzone.net/2010/08/new-promo-template-monster-30000-template.html'
p2547
sg2534
g5
(S'\x07\xda\x08\n\x0f\x05\x04\x0cX\x0e'
p2548
tp2549
Rp2550
sg2538
S'New Promo from Template Monster Dedicated to Their 30000th Template!'
p2551
sa(dp2552
g2532
S'http://blog.ksplice.com/2010/08/strace-the-sysadmins-microscope/'
p2553
sg2534
g5
(S'\x07\xda\x08\n\x0f\x05\x04\x0cW&'
p2554
tp2555
Rp2556
sg2538
S'Ksplice \xbb Strace ? The Sysadmin?s Microscope - System administration and software blog'
p2557
sa(dp2558
g2532
S'http://ginzametrics.com/seo-strategy-that-works.html'
p2559
sg2534
g5
(S'\x07\xda\x08\n\x0f\x05\x04\x0cV\x8b'
p2560
tp2561
Rp2562
sg2538
S'SEO Strategy that Works | Ginzametrics'
p2563
sa(dp2564
g2532
S'http://justsomethingimade.blogspot.com/2010/08/fun-with-decals-part-1-in-kitchen-free.html'
p2565
sg2534
g5
(S'\x07\xda\x08\n\x0f\x05\x04\x0b\xbb\x16'
p2566
tp2567
Rp2568
sg2538
S'Just Something I Made: FUN WITH DECALS PART 1: In the Kitchen Free PDF Images and Giveaway'
p2569
sa(dp2570
g2532
S'http://zarah5.livejournal.com/58670.html'
p2571
sg2534
g5
(S'\x07\xda\x08\n\x0f\x05\x04\x0b\xba\xdc'
p2572
tp2573
Rp2574
sg2538
S'Coming Down From These Heights'
p2575
sa(dp2576
g2532
S'http://www.boingboing.net/2010/08/10/yakuza-3-review.html'
p2577
sg2534
g5
(S'\x07\xda\x08\n\x0f\x05\x04\x0b\xba\x8f'
p2578
tp2579
Rp2580
sg2538
S'Yakuza 3 reviewed by Yakuza - Boing Boing'
p2581
sa(dp2582
g2532
S'http://legendas.rec.br/'
p2583
sg2534
g5
(S'\x07\xda\x08\n\x0f\x05\x04\x0b\xba5'
p2584
tp2585
Rp2586
sg2538
S'Legendas.rec.br - Legendas para filmes!'
p2587
sa(dp2588
g2532
S'http://lifehacker.com/5609265/save-significant-cash-and-keep-the-hd-video-with-a-diy-hdtv-antenna'
p2589
sg2534
g5
(S'\x07\xda\x08\n\x0f\x05\x04\x0b\xb9\xfd'
p2590
tp2591
Rp2592
sg2538
S'Save Significant Cash and Keep the HD Video with a DIY HDTV Antenna'
p2593
sa(dp2594
g2532
S'http://www.123print.com/articles/12-Logos-That-Went-Terribly-Wrong.html'
p2595
sg2534
g5
(S'\x07\xda\x08\n\x0f\x05\x04\x0b\xb9\xb4'
p2596
tp2597
Rp2598
sg2538
S'http://www.123print.com/articles/12-Logos-That-Went-Terribly-Wrong.html'
p2599
sa(dp2600
g2532
S'http://destinationcharlestonsc.com/'
p2601
sg2534
g5
(S'\x07\xda\x08\n\x0f\x05\x04\x0b\xb9_'
p2602
tp2603
Rp2604
sg2538
S'Charleston Tours | Charleston Vacation Packages | Charleston Vacations'
p2605
sa(dp2606
S'link'
p2607
S'http://frogmob.frogdesign.com/'
p2608
sS'pubDate'
p2609
g5
(S'\x07\xda\x08\n\x0e\x05\x04\x0e\xd1\xc7'
p2610
tp2611
Rp2612
sS'title'
p2613
S'frogMob'
p2614
sa(dp2615
g2607
S'http://ppicker.p4ul.info/'
p2616
sg2609
g5
(S'\x07\xda\x08\n\x0e\x05\x04\x0e\xd1V'
p2617
tp2618
Rp2619
sg2613
S'Period Picker - a easy to use jQuery period picker plugin'
p2620
sa(dp2621
g2607
S'http://www.cinemahalls.com/tollywood-trailer/endhiran-movie-trailer'
p2622
sg2609
g5
(S'\x07\xda\x08\n\x0e\x05\x04\x0e\xd1\x00'
p2623
tp2624
Rp2625
sg2613
S'Endhiran:40,913,003.88 USD. The most expensive South Asian movie'
p2626
sa(dp2627
g2607
S'http://www.smashingmagazine.com/2010/08/10/showcase-of-delicious-coffee-websites/'
p2628
sg2609
g5
(S'\x07\xda\x08\n\x0e\x05\x04\x0e\xcf\xfe'
p2629
tp2630
Rp2631
sg2613
S'Showcase Of Delicious Coffee Websites - Smashing Magazine'
p2632
sa(dp2633
g2607
S'http://www.nytimes.com/2010/08/08/business/08consume.html?_r=2'
p2634
sg2609
g5
(S'\x07\xda\x08\n\x0e\x05\x04\x0e\xcf\xae'
p2635
tp2636
Rp2637
sg2613
S'Consumers Find Ways to Spend Less and Find Happiness - NYTimes.com'
p2638
sa(dp2639
g2607
S'http://johnpatrickgiven.com/jquery/soSoSocial/'
p2640
sg2609
g5
(S'\x07\xda\x08\n\x0e\x05\x04\x0e\xcfc'
p2641
tp2642
Rp2643
sg2613
S'jQuery - So So Social - jQuery News Feed from your Social Networks'
p2644
sa(dp2645
g2607
S'http://adage.com/digital/article?article_id=145285'
p2646
sg2609
g5
(S'\x07\xda\x08\n\x0e\x05\x04\x0e\xcf\x13'
p2647
tp2648
Rp2649
sg2613
S'Digital: E-mail Marketing vs. Social-Media Marketing - Advertising Age - Steve Rubel'
p2650
sa(dp2651
g2607
S'https://docs.google.com/present/view?id=dhn2vcv5_721gdk5jtd8'
p2652
sg2609
g5
(S'\x07\xda\x08\n\x0e\x05\x04\x0e\xce6'
p2653
tp2654
Rp2655
sg2613
S'17 Interesting Ways* to use an iPad in the Classroom'
p2656
sa(dp2657
S'link'
p2658
S'http://www.mycookingdiary.com/'
p2659
sS'pubDate'
p2660
g5
(S'\x07\xda\x08\n\r\x05\x05\x04\xab\xea'
p2661
tp2662
Rp2663
sS'title'
p2664
S'My Cooking Diary'
p2665
sa(dp2666
g2658
S'http://twistynoodle.com/'
p2667
sg2660
g5
(S'\x07\xda\x08\n\r\x05\x05\x04\xab\xb1'
p2668
tp2669
Rp2670
sg2664
S'Free Coloring Pages and Handwriting Practice Worksheets - Twisty Noodle'
p2671
sa(dp2672
g2658
S'http://thechive.com/2010/08/10/girl-quits-her-job-on-dry-erase-board-emails-entire-office-33-photos/'
p2673
sg2660
g5
(S'\x07\xda\x08\n\r\x05\x05\x04\xab6'
p2674
tp2675
Rp2676
sg2664
S'girl quits job on dry erase board exposes farmville boss called her hopa theCHIVE'
p2677
sa(dp2678
g2658
S'http://thechive.com/2010/08/10/girl-quits-her-job-on-dry-erase-board-emails-entire-office-33-photos/?utm_source=feedburner&utm_medium=feed&utm_campaign=Feed:+feedburner/ZdSV+(theCHIVE'
p2679
sg2660
g5
(S'\x07\xda\x08\n\r\x05\x05\x04\xaa\xb1'
p2680
tp2681
Rp2682
sg2664
S'girl quits job on dry erase board exposes farmville boss called her hopa theCHIVE'
p2683
sa(dp2684
g2658
S'http://yesiamprecious.com/'
p2685
sg2660
g5
(S'\x07\xda\x08\n\r\x05\x05\x04\xaap'
p2686
tp2687
Rp2688
sg2664
S'Yes I am Precious'
p2689
sa(dp2690
g2658
S'http://muro.deviantart.com/#'
p2691
sg2660
g5
(S'\x07\xda\x08\n\r\x05\x05\x04\xaa3'
p2692
tp2693
Rp2694
sg2664
S'deviantART Muro'
p2695
sa(dp2696
g2658
S'http://blogs.hbr.org/cs/2010/08/six_invisible_secrets_to_a_cul.html'
p2697
sg2660
g5
(S'\x07\xda\x08\n\r\x05\x05\x04\xa9,'
p2698
tp2699
Rp2700
sg2664
S'Six Secrets to Creating a Culture of Innovation - Tony Schwartz - The Conversation - Harvard Business Review'
p2701
sa(dp2702
g2658
S'http://online.wsj.com/article/SB10001424052748703309704575413553851854026.html'
p2703
sg2660
g5
(S'\x07\xda\x08\n\r\x05\x05\x04\xa8\xec'
p2704
tp2705
Rp2706
sg2664
S'Google Agonizes on Privacy as Advertising World Vaults Ahead - WSJ.com'
p2707
sa(dp2708
g2658
S'http://typedia.com/blog/livelook/cure-for-the-common-webfont-part-1-alternatives-to-arial-and-helvetica/'
p2709
sg2660
g5
(S'\x07\xda\x08\n\r\x05\x05\x04\xa8o'
p2710
tp2711
Rp2712
sg2664
S'Typedia: Blog: Cure for the Common Webfont, Part 1: Alternatives to Arial (and Helvetica)'
p2713
sa(dp2714
S'link'
p2715
S'http://www.creativereview.co.uk/cr-blog/2010/august/data-visualisation-aiding-understanding'
p2716
sS'pubDate'
p2717
g5
(S'\x07\xda\x08\n\x0c\x05\x05\x00\x93_'
p2718
tp2719
Rp2720
sS'title'
p2721
S'Creative Review - Data visualisation: an aid to understanding?'
p2722
sa(dp2723
g2715
S'http://www.thedailybeast.com/blogs-and-stories/2010-08-10/a-western-crackdown-on-wikileaks/'
p2724
sg2717
g5
(S'\x07\xda\x08\n\x0c\x05\x05\x00\x93-'
p2725
tp2726
Rp2727
sg2721
S'U.S. Urges Allies to Crack Down on WikiLeaks - The Daily Beast'
p2728
sa(dp2729
g2715
S'http://www.underworldmagazines.com/29-useful-things-you-can-do-with-css3/'
p2730
sg2717
g5
(S'\x07\xda\x08\n\x0c\x05\x05\x00\x92\xc5'
p2731
tp2732
Rp2733
sg2721
S'29 Useful Things you can do with CSS3'
p2734
sa(dp2735
g2715
S'http://www.copyblogger.com/email-newsletter-response/'
p2736
sg2717
g5
(S'\x07\xda\x08\n\x0c\x05\x05\x00\x925'
p2737
tp2738
Rp2739
sg2721
S'5 Reasons Why No One Is Reading Your Email Newsletter'
p2740
sa(dp2741
g2715
S'http://icons.enlivenlabs.com/'
p2742
sg2717
g5
(S'\x07\xda\x08\n\x0c\x05\x05\x00\x91\xd0'
p2743
tp2744
Rp2745
sg2721
S'Icons By Enliven Labs'
p2746
sa(dp2747
g2715
S'http://www.spring.org.uk/2010/08/twitter-10-psychological-insights.php'
p2748
sg2717
g5
(S'\x07\xda\x08\n\x0c\x05\x05\x00\x91\x90'
p2749
tp2750
Rp2751
sg2721
S'Twitter: 10 Psychological Insights ? PsyBlog'
p2752
sa(dp2753
g2715
S'http://techcrunch.com/2010/08/09/twitter_rushmore_vide/'
p2754
sg2717
g5
(S'\x07\xda\x08\n\x0c\x05\x05\x00\x90\x96'
p2755
tp2756
Rp2757
sg2721
S'Twitter Is Hiring, And In A Really Awesome Way'
p2758
sa(dp2759
g2715
S'http://www.bitterwallet.com/lazy-hacks-and-the-case-of-the-wanky-balls-festival/33098'
p2760
sg2717
g5
(S'\x07\xda\x08\n\x0c\x05\x05\x00\x8f\xfc'
p2761
tp2762
Rp2763
sg2721
S'Lazy hacks and the case of the Wanky Balls festival | BitterWallet'
p2764
sa(dp2765
g2715
S'http://www.flickr.com/photos/kentbrew/sets/72157624692331946/'
p2766
sg2717
g5
(S'\x07\xda\x08\n\x0c\x05\x05\x00\x8f{'
p2767
tp2768
Rp2769
sg2721
S'How to Turn Carrots into Bacon! - a set on Flickr'
p2770
sa(dp2771
g2715
S'http://nflinjury.com/playing-with-pain.html'
p2772
sg2717
g5
(S'\x07\xda\x08\n\x0c\x05\x05\x00\x8e\x9e'
p2773
tp2774
Rp2775
sg2721
S'Harmful Effects Of a NFL Career (Infographic)'
p2776
sa(dp2777
S'link'
p2778
S'http://news.deviantart.com/article/125373/'
p2779
sS'pubDate'
p2780
g5
(S'\x07\xda\x08\n\x0b\x05\x04\x05\xb1h'
p2781
tp2782
Rp2783
sS'title'
p2784
S"News: deviantART Muro: It's Time to Draw!"
p2785
sa(dp2786
g2778
S'http://edwardboches.com/books-blogs-people-to-follow-for-bdw-students'
p2787
sg2780
g5
(S'\x07\xda\x08\n\x0b\x05\x04\x05\xb0\xe8'
p2788
tp2789
Rp2790
sg2784
S'Books, blogs, ideas and people to follow for BDW Students | Creativity_Unbound'
p2791
sa(dp2792
g2778
S'http://www.readwriteweb.com/archives/5_ways_that_ebooks_are_better_than_paper_books.php'
p2793
sg2780
g5
(S'\x07\xda\x08\n\x0b\x05\x04\x05\xb0\xa9'
p2794
tp2795
Rp2796
sg2784
S'5 Ways That eBooks Are Better Than Paper Books'
p2797
sa(dp2798
g2778
S'http://mac.appstorm.net/roundups/internet-roundup/5-fantastic-places-to-find-free-mac-software/?utm_source=feedburner&utm_medium=feed&utm_campaign=Feed%3A+MacAppStorm+%28Mac+AppStorm%29'
p2799
sg2780
g5
(S'\x07\xda\x08\n\x0b\x05\x04\x05\xaf\x81'
p2800
tp2801
Rp2802
sg2784
S'5 Fantastic Places to Find Free Mac Software | Mac.AppStorm'
p2803
sa(dp2804
g2778
S'http://blog.pressdoc.com/2010/08/8-pr-tips-for-launching-your-startup.html'
p2805
sg2780
g5
(S'\x07\xda\x08\n\x0b\x05\x04\x05\xae\x15'
p2806
tp2807
Rp2808
sg2784
S'PressDoc \xb7 8 PR Tips for Launching Your Startup - PressDoc'
p2809
sa(dp2810
g2778
S'http://www.emarketer.com/Article.aspx?R=1007858'
p2811
sg2780
g5
(S'\x07\xda\x08\n\x0b\x05\x04\x05\xad\xbf'
p2812
tp2813
Rp2814
sg2784
S'Half of Mobile Users to Be Web-Enabled by 2013 - eMarketer'
p2815
sa(dp2816
g2778
S'http://radbox.me/'
p2817
sg2780
g5
(S'\x07\xda\x08\n\x0b\x05\x04\x05\xad '
p2818
tp2819
Rp2820
sg2784
S'Radbox - The best way to watch videos online'
p2821
sa(dp2822
S'link'
p2823
S'http://www.bestfreewebresources.com/2010/08/wonderful-examples-of-ornamental-typography.html'
p2824
sS'pubDate'
p2825
g5
(S'\x07\xda\x08\n\n\x05\x05\x04\xfd!'
p2826
tp2827
Rp2828
sS'title'
p2829
S'Wonderful Examples Of Ornamental Typography'
p2830
sa(dp2831
g2823
S'http://www.eulembro.com.br/'
p2832
sg2825
g5
(S'\x07\xda\x08\n\n\x05\x05\x04\xfc\xd9'
p2833
tp2834
Rp2835
sg2829
S'Eu Lembro - Seja um eleitor com mem\xf3ria de elefante'
p2836
sa(dp2837
g2823
S'http://savedelete.com/best-free-thesis-skins.html'
p2838
sg2825
g5
(S'\x07\xda\x08\n\n\x05\x05\x04\xfc\x80'
p2839
tp2840
Rp2841
sg2829
S'15 Beautiful And Free Thesis Skin For Your Thesis WordPress Theme'
p2842
sa(dp2843
g2823
S'http://crowdmap.com/'
p2844
sg2825
g5
(S'\x07\xda\x08\n\n\x05\x05\x04\xfcD'
p2845
tp2846
Rp2847
sg2829
S'Crowdmap'
p2848
sa(dp2849
g2823
S'http://www.schneier.com/blog/archives/2010/08/a_taxonomy_of_s_1.html'
p2850
sg2825
g5
(S'\x07\xda\x08\n\n\x05\x05\x04\xfb\xe2'
p2851
tp2852
Rp2853
sg2829
S'Schneier on Security: A Revised Taxonomy of Social Networking Data'
p2854
sa(dp2855
g2823
S'http://thenextweb.com/socialmedia/2010/08/10/5-reasons-you-need-a-facebook-page-right-now'
p2856
sg2825
g5
(S'\x07\xda\x08\n\n\x05\x05\x04\xfa\xae'
p2857
tp2858
Rp2859
sg2829
S'5 Reasons You Need A Facebook Page Right Now'
p2860
sa(dp2861
g2823
S'http://jontangerine.com/silo/typography/ligatures/'
p2862
sg2825
g5
(S'\x07\xda\x08\n\n\x05\x05\x04\xfal'
p2863
tp2864
Rp2865
sg2829
S'Typography: Ligatures test suit ? Jon Tan ?'
p2866
sa(dp2867
g2823
S'http://www.changeofaddress.org/blog/2010/10-tips-to-finally-have-an-organized-garage/'
p2868
sg2825
g5
(S'\x07\xda\x08\n\n\x05\x05\x04\xfa\x06'
p2869
tp2870
Rp2871
sg2829
S'Change of Address: 10 Tips to Finally Have an Organized Garage'
p2872
sa(dp2873
g2823
S'http://www.christiancollegesonline.org/blog/2010/8-famous-witches-burned-at-the-stake/'
p2874
sg2825
g5
(S'\x07\xda\x08\n\n\x05\x05\x04\xf9r'
p2875
tp2876
Rp2877
sg2829
S'8 Famous Witches Burned at the Stake | Christian Colleges Online'
p2878
sa(dp2879
S'link'
p2880
S'http://take.fm/'
p2881
sS'pubDate'
p2882
g5
(S'\x07\xda\x08\n\t\x05\x04\x04\xb53'
p2883
tp2884
Rp2885
sS'title'
p2886
S'Take.fm | Movies BitTorrent downloads directory'
p2887
sa(dp2888
g2880
S'http://www.fiverr.com/users/vimeshkumar/gigs/do-a-quick-link-building-for-your-website-with-more-than-80-websites-and-submit-a-complete-report'
p2889
sg2882
g5
(S'\x07\xda\x08\n\t\x05\x04\x04\xb4\xa0'
p2890
tp2891
Rp2892
sg2886
S'The Fastest Link Building Ever With the Free Report'
p2893
sa(dp2894
g2880
S'http://www.mikeplate.com/css3-playground/'
p2895
sg2882
g5
(S'\x07\xda\x08\n\t\x05\x04\x04\xb4b'
p2896
tp2897
Rp2898
sg2886
S'CSS3 Playground - Mike Plate'
p2899
sa(dp2900
g2880
S'http://news.ycombinator.com/item?id=1590713'
p2901
sg2882
g5
(S'\x07\xda\x08\n\t\x05\x04\x04\xb4\x17'
p2902
tp2903
Rp2904
sg2886
S'Hacker News | Ask HN: What Vim Plugins do you use?'
p2905
sa(dp2906
g2880
S'http://www.fiverr.com/users/vimeshkumar/gigs/publish-your-website-or-blog-in-the-home-page-of-google-top-3-press-service'
p2907
sg2882
g5
(S'\x07\xda\x08\n\t\x05\x04\x04\xb3\xae'
p2908
tp2909
Rp2910
sg2886
S'How to Get Your Press Release or Website Announcement On Top Position of Google?'
p2911
sa(dp2912
S'link'
p2913
S'http://css3.mikeplate.com/'
p2914
sS'pubDate'
p2915
g5
(S'\x07\xda\x08\n\x08\x05\x05\x02\x0b4'
p2916
tp2917
Rp2918
sS'title'
p2919
S'CSS3 Playground by Mike Plate'
p2920
sa(dp2921
g2913
S'http://sixtus.cc/in-sachen-gvu'
p2922
sg2915
g5
(S'\x07\xda\x08\n\x08\x05\x05\x02\nu'
p2923
tp2924
Rp2925
sg2919
S'In Sachen GVU - SIXTUS.CC'
p2926
sa(dp2927
g2913
S'http://www.slideshare.net/kaseybayne/carsonified-onlineconference100things-final'
p2928
sg2915
g5
(S'\x07\xda\x08\n\x08\x05\x05\x02\tf'
p2929
tp2930
Rp2931
sg2919
S'Carsonified 100 Things - How to see in the dark: 10 Metrics to help measure web app success'
p2932
sa(dp2933
S'link'
p2934
S'http://sixrevisions.com/productivity/9-productivity-techniques-for-freelancers/'
p2935
sS'pubDate'
p2936
g5
(S'\x07\xda\x08\n\x07\x05\x05\x00|g'
p2937
tp2938
Rp2939
sS'title'
p2940
S'9 Productivity Techniques for Freelancers'
p2941
sa(dp2942
g2934
S'http://www.wasteology.co.uk/'
p2943
sg2936
g5
(S'\x07\xda\x08\n\x07\x05\x05\x00|\x1a'
p2944
tp2945
Rp2946
sg2940
S'Skip Hire in Somerset & Devon. Waste Recycling, Wellington | Wasteology'
p2947
sa(dp2948
g2934
S'http://www.whathotnow.net/sale7'
p2949
sg2936
g5
(S'\x07\xda\x08\n\x07\x05\x05\x00{-'
p2950
tp2951
Rp2952
sg2940
S'Make Money With Dropship Business'
p2953
sa(dp2954
S'link'
p2955
S'http://resources.savedelete.com/10-beautiful-wordpress-themes-of-july-2010-for-free-download.html'
p2956
sS'pubDate'
p2957
g5
(S'\x07\xda\x08\n\x06\x05\x04\x01C\xc9'
p2958
tp2959
Rp2960
sS'title'
p2961
S'10 Beautiful WordPress Themes Of July 2010 For Free Download'
p2962
sa(dp2963
g2955
S'http://www.onlinedegreeprograms.com/blog/2010/50-blog-posts-every-business-leader-should-bookmark/'
p2964
sg2957
g5
(S'\x07\xda\x08\n\x06\x05\x04\x01C\x88'
p2965
tp2966
Rp2967
sg2961
S'50 Blog Posts Every Business Leader Should Bookmark | Online Degree Programs.com'
p2968
sa(dp2969
g2955
S'http://edte.ch/blog/2008/03/29/twitter-a-teaching-and-learning-tool/'
p2970
sg2957
g5
(S'\x07\xda\x08\n\x06\x05\x04\x01B\x9d'
p2971
tp2972
Rp2973
sg2961
S'Twitter ? A Teaching and Learning Tool | edte.ch'
p2974
sa(dp2975
g2955
S'http://www.sharetechno.com/top-10-free-antivirus-softwares-you-must-have/'
p2976
sg2957
g5
(S'\x07\xda\x08\n\x06\x05\x04\x01A\xbb'
p2977
tp2978
Rp2979
sg2961
S'Top 10 Free Antivirus Softwares You Must Have'
p2980
sa(dp2981
g2955
S'http://mashable.com/2010/08/10/small-business-design-trends/'
p2982
sg2957
g5
(S'\x07\xda\x08\n\x06\x05\x04\x01A3'
p2983
tp2984
Rp2985
sg2961
S'5 Small Biz Web Design Trends to Watch'
p2986
sa(dp2987
g2955
S'http://www.conseilsmarketing.fr/referencement/comment-voler-les-clients-de-ses-concurrents'
p2988
sg2957
g5
(S'\x07\xda\x08\n\x06\x05\x04\x01@\xd0'
p2989
tp2990
Rp2991
sg2961
S'Comment voler les clients de ses concurrents gr\xe2ce aux Media Sociaux ?'
p2992
sa(dp2993
S'link'
p2994
S'http://arstechnica.com/apple/news/2010/08/how-star-trek-artists-imagined-the-ipad-23-years-ago.ars'
p2995
sS'pubDate'
p2996
g5
(S'\x07\xda\x08\n\x05\x05\x05\x01\xcb\xd7'
p2997
tp2998
Rp2999
sS'title'
p3000
S'How Star Trek artists imagined the iPad... 23 years ago'
p3001
sa(dp3002
g2994
S'http://domesday.pase.ac.uk/'
p3003
sg2996
g5
(S'\x07\xda\x08\n\x05\x05\x05\x01\xcb\x8e'
p3004
tp3005
Rp3006
sg3000
S'Domesday - Prosopography of Anglo-Saxon England'
p3007
sa(dp3008
g2994
S'http://www.socialmediaexaminer.com/facebook-101-business-guide/'
p3009
sg2996
g5
(S'\x07\xda\x08\n\x05\x05\x05\x01\xcbK'
p3010
tp3011
Rp3012
sg3000
S'Facebook 101 Business Guide | Social Media Examiner'
p3013
sa(dp3014
g2994
S'http://muro.deviantart.com/'
p3015
sg2996
g5
(S'\x07\xda\x08\n\x05\x05\x05\x01\xca\xf2'
p3016
tp3017
Rp3018
sg3000
S'deviantART Muro'
p3019
sa(dp3020
g2994
S'http://www.1stwebdesigner.com/resources/color-palettes-swatches/'
p3021
sg2996
g5
(S'\x07\xda\x08\n\x05\x05\x05\x01\xc9J'
p3022
tp3023
Rp3024
sg3000
S'100 Delightful and Pleasing Color Palettes and Swatches'
p3025
sa(dp3026
S'link'
p3027
S'http://www.theinsuranceqoutes.com/2010/cheap-and-expensive-car-insurance-tips-for-drivers.html'
p3028
sS'pubDate'
p3029
g5
(S'\x07\xda\x08\n\x04\x05\x04\r\xb2\xdd'
p3030
tp3031
Rp3032
sS'title'
p3033
S'Cheap and expensive Car Insurance Tips For Drivers'
p3034
sa(dp3035
S'link'
p3036
S'http://www.picturebulk.com/?p=345&sms_ss=delicious'
p3037
sS'pubDate'
p3038
g5
(S'\x07\xda\x08\n\x03\x05\x05\x06\xa2W'
p3039
tp3040
Rp3041
sS'title'
p3042
S'15 Awesome Storm Painting Created On Photoshop'
p3043
sa(dp3044
g3036
S'http://globalthoughtz.com/2010/08/are-you-suffering-with-qwerty-tummy-too/'
p3045
sg3038
g5
(S'\x07\xda\x08\n\x03\x05\x05\x05\xfe-'
p3046
tp3047
Rp3048
sg3042
S'Are you Suffering with ?Qwerty Tummy? Too???'
p3049
sa(dp3050
g3036
S'http://www.mediainfo.in/NewsServ?method=newsdetailshow&&newsid=971'
p3051
sg3038
g5
(S'\x07\xda\x08\n\x03\x05\x05\x05\xfd\xd6'
p3052
tp3053
Rp3054
sg3042
S'News, bollywood news, media news, latest bollywood and Hollywood news, breaking news, entertainment news, top news sites'
p3055
sa(dp3056
S'link'
p3057
S'http://suchdisguise.livejournal.com/8521.html#cutid1'
p3058
sS'pubDate'
p3059
g5
(S'\x07\xda\x08\n\x02\x05\x05\x05T\xa5'
p3060
tp3061
Rp3062
sS'title'
p3063
S'Two Steps Towards Make Believe'
p3064
sa(dp3065
S'link'
p3066
S'http://kachibito.net/web-service/23-travel-web-sites.html'
p3067
sS'pubDate'
p3068
g5
(S'\x07\xda\x08\n\x01\x05\x04\x0e\xa6\x8b'
p3069
tp3070
Rp3071
sS'title'
p3072
S'??????????????????????? - ????.net'
p3073
sa(dp3074
S'link'
p3075
S'http://coliss.com/articles/build-websites/operation/javascript/jquery-plugin-textbox-hinter.html'
p3076
sS'pubDate'
p3077
g5
(S'\x07\xda\x08\n\x00\x05\x04\x01\xc3\xf0'
p3078
tp3079
Rp3080
sS'title'
p3081
S'[JS]??????????????????????? -Textbox Hinter | ???'
p3082
sa(dp3083
g3075
S'http://coliss.com/articles/build-websites/operation/design/photoshop-tutorial-typography-part19.html'
p3084
sg3077
g5
(S'\x07\xda\x08\n\x00\x05\x04\x01\xc3m'
p3085
tp3086
Rp3087
sg3081
S'Photoshop??????????????????? -Part19 | ???'
p3088
sa(dp3089
g3075
S'http://hiro.asks.jp/72803.html'
p3090
sg3077
g5
(S'\x07\xda\x08\n\x00\x05\x04\x01\xc3\x19'
p3091
tp3092
Rp3093
sg3081
S'?????????????????????? : ?????????SNS'
p3094
sa(dp3095
g3075
S'http://s-max.jp/archives/1142422.html'
p3096
sg3077
g5
(S'\x07\xda\x08\n\x00\x05\x04\x01\xc2\xb2'
p3097
tp3098
Rp3099
sg3081
S'iPhone????Gmail?????????Exchange?????????????? - S-MAX - ????????'
p3100
sa(dp3101
S'link'
p3102
S'http://tumble.sneak.co.nz/post/928998513/fixing-the-background-bleed'
p3103
sS'pubDate'
p3104
g5
(S'\x07\xda\x08\t\x17\x05\x05\x03\x96\xe9'
p3105
tp3106
Rp3107
sS'title'
p3108
S"Sneak ? Fixing the background 'bleed'"
p3109
sa(dp3110
g3102
S'http://coliss.com/articles/build-websites/operation/work/html5-reset-org.html'
p3111
sg3104
g5
(S'\x07\xda\x08\t\x17\x05\x05\x03\x96o'
p3112
tp3113
Rp3114
sg3108
S'HTML5+CSS3???????????????????????????? -HTML5 Reset | ???'
p3115
sa(dp3116
S'link'
p3117
S'http://www.fallinstar.org/2010/08/_2010version.html'
p3118
sS'pubDate'
p3119
g5
(S'\x07\xda\x08\t\x16\x05\x05\x05\\\xa8'
p3120
tp3121
Rp3122
sS'title'
p3123
S'????????????????????? 2010?version - Feel Like A Fallinstar'
p3124
sa(dp3125
g3117
S'http://cordlessdog.com/stay/'
p3126
sg3119
g5
(S'\x07\xda\x08\t\x16\x05\x05\x05\\N'
p3127
tp3128
Rp3129
sg3123
S'Cordless Dog: Stay'
p3130
sa(dp3131
g3117
S'http://community.livejournal.com/inception_kink/4946.html?thread=7144274#t7144274'
p3132
sg3119
g5
(S'\x07\xda\x08\t\x16\x05\x05\x05[\xb9'
p3133
tp3134
Rp3135
sg3123
S'inception_kink: Prompt Post No. 3'
p3136
sa(dp3137
S'link'
p3138
S'http://html5reset.org/'
p3139
sS'pubDate'
p3140
g5
(S'\x07\xda\x08\t\x15\x05\x05\x05\xd2\xf3'
p3141
tp3142
Rp3143
sS'title'
p3144
S'HTML5 Reset'
p3145
sa(dp3146
g3138
S'http://www.seojapan.com/blog/%E3%83%8D%E3%83%83%E3%83%88%E3%81%AE%E5%A3%B2%E4%B8%8A%E3%82%92%E6%BF%80%E5%A2%97%E3%81%95%E3%81%9B%E3%82%8B%E3%81%9F%E3%82%81%E3%81%AE101%E3%81%AE%E7%A7%98%E8%A8%A3'
p3147
sg3140
g5
(S'\x07\xda\x08\t\x15\x05\x05\x05\x91\x9c'
p3148
tp3149
Rp3150
sg3144
S'???????????????101??? \xbb SEO Japan'
p3151
sa(dp3152
g3138
S'http://www.huffingtonpost.com/craig-aaron/google-verizon-pact-it-ge_b_676194.html'
p3153
sg3140
g5
(S'\x07\xda\x08\t\x15\x05\x05\x05\x91\x1e'
p3154
tp3155
Rp3156
sg3144
S'Craig Aaron: Google-Verizon Pact: It Gets Worse'
p3157
sa(dp3158
S'link'
p3159
S'http://thingsthatarebrown.com/blog/2010/05/dont-get-fireballed/'
p3160
sS'pubDate'
p3161
g5
(S'\x07\xda\x08\t\x14\x05\x04\x0e\xac\xe3'
p3162
tp3163
Rp3164
sS'title'
p3165
S'Don?t Get\xa0Fireballed | brown blog'
p3166
sa(dp3167
S'link'
p3168
S'http://www.techlearning.com/article/31924'
p3169
sS'pubDate'
p3170
g5
(S'\x07\xda\x08\t\x13\x05\x04\x0f\x04V'
p3171
tp3172
Rp3173
sS'title'
p3174
S'Top 10 Sites for Creating Surveys'
p3175
sa(dp3176
g3168
S'http://blogs.wsj.com/metropolis/2010/08/09/fed-up-flight-attendant-pops-planes-emergency-chute-at-jfk-slides-away/?mod=e2tw'
p3177
sg3170
g5
(S'\x07\xda\x08\t\x13\x05\x04\x0f\x03\xb2'
p3178
tp3179
Rp3180
sg3174
S'JetBlue Flight Attendant Pops Open Plane Chute at JFK, Slides Away - Metropolis - WSJ'
p3181
sa(dp3182
g3168
S'http://mashable.com/2010/08/09/prevent-social-media-disaster/'
p3183
sg3170
g5
(S'\x07\xda\x08\t\x13\x05\x04\x0f\x02\x80'
p3184
tp3185
Rp3186
sg3174
S'HOW TO: Avoid a Social Media Disaster'
p3187
sa(dp3188
S'link'
p3189
S'http://marcuswest.in/read/fun-intro/'
p3190
sS'pubDate'
p3191
g5
(S'\x07\xda\x08\t\x12\x05\x04\r\xdf\xb1'
p3192
tp3193
Rp3194
sS'title'
p3195
S'Fun (a programming language for the realtime web)'
p3196
sa(dp3197
g3189
S'http://www.makeuseof.com/tag/10-websites-puzzles-brain-teasers-and-riddles/'
p3198
sg3191
g5
(S'\x07\xda\x08\t\x12\x05\x04\r\xde\xc5'
p3199
tp3200
Rp3201
sg3195
S'10 Websites for Puzzles, Brain Teasers and Riddles'
p3202
sa(dp3203
g3189
S'http://www.seriouseats.com/recipes/2010/08/maple-black-pepper-pork-chops-recipe.html'
p3204
sg3191
g5
(S'\x07\xda\x08\t\x12\x05\x04\r\xde0'
p3205
tp3206
Rp3207
sg3195
S'Maple Black Pepper Pork Chops | Serious Eats : Recipes'
p3208
sa(dp3209
S'link'
p3210
S'http://marcuswest.in/read/fun-intro'
p3211
sS'pubDate'
p3212
g5
(S'\x07\xda\x08\t\x11\x05\x05\x04\x9bs'
p3213
tp3214
Rp3215
sS'title'
p3216
S'Fun (a programming language for the realtime web)'
p3217
sa(dp3218
g3210
S'http://www.missminimalist.com/?p=906'
p3219
sg3212
g5
(S'\x07\xda\x08\t\x11\x05\x05\x04\x9a\xe0'
p3220
tp3221
Rp3222
sg3216
S'Minimalist Living: 100 Things I Don?t Own \xab miss minimalist'
p3223
sa(dp3224
g3210
S'http://mashable.com/2010/08/09/freelancers-social-media-future/'
p3225
sg3212
g5
(S'\x07\xda\x08\t\x11\x05\x05\x04\x9a\x18'
p3226
tp3227
Rp3228
sg3216
S'How Freelancers Might Use Social Media in the Future'
p3229
sa(dp3230
g3210
S'http://www.boston.com/bigpicture/2010/08/in_silhouette.html'
p3231
sg3212
g5
(S'\x07\xda\x08\t\x11\x05\x05\x04\x99\n'
p3232
tp3233
Rp3234
sg3216
S'In silhouette - The Big Picture - Boston.com'
p3235
sa(dp3236
g3210
S'http://www.wired.com/epicenter/2010/08/google-verizon-propose-open-vs-paid-internets/'
p3237
sg3212
g5
(S'\x07\xda\x08\t\x11\x05\x05\x04\x98\x8a'
p3238
tp3239
Rp3240
sg3216
S'Google, Verizon Propose Open vs Paid Internets | Epicenter\xa0| Wired.com'
p3241
sa(dp3242
g3210
S'http://www.huffingtonpost.com/adam-green/breaking-google-goes-evil_b_676021.html'
p3243
sg3212
g5
(S'\x07\xda\x08\t\x11\x05\x05\x04\x97\xc5'
p3244
tp3245
Rp3246
sg3216
S'Adam Green: Google Goes "Evil"'
p3247
sa(dp3248
g3210
S'http://www.freetech4teachers.com/2010/08/11-techy-things-for-teachers-to-try.html?utm_source=feedburner&utm_medium=feed&utm_campaign=Feed%3A+freetech4teachers%2FcGEY+%28Free+Technology+for+Teachers%29'
p3249
sg3212
g5
(S'\x07\xda\x08\t\x11\x05\x05\x04\x97\x8c'
p3250
tp3251
Rp3252
sg3216
S'Free Technology for Teachers: 11 Techy Things for Teachers to Try This Year'
p3253
sa(dp3254
g3210
S'http://finance.yahoo.com/family-home/article/110275/but-will-it-make-you-happy'
p3255
sg3212
g5
(S'\x07\xda\x08\t\x11\x05\x05\x04\x97 '
p3256
tp3257
Rp3258
sg3216
S'but-will-it-make-you-happy: Personal Finance News from Yahoo! Finance'
p3259
sa(dp3260
S'link'
p3261
S'http://www.freetech4teachers.com/2010/08/11-techy-things-for-teachers-to-try.html'
p3262
sS'pubDate'
p3263
g5
(S'\x07\xda\x08\t\x10\x05\x04\x06Z\xc7'
p3264
tp3265
Rp3266
sS'title'
p3267
S'Free Technology for Teachers: 11 Techy Things for Teachers to Try This Year'
p3268
sa(dp3269
g3261
S'http://rmurphey.posterous.com/on-jquery-large-applications'
p3270
sg3263
g5
(S'\x07\xda\x08\t\x10\x05\x04\x06Zs'
p3271
tp3272
Rp3273
sg3267
S'On jQuery & Large Applications - rmurphey'
p3274
sa(dp3275
g3261
S'http://www.gutefrage.net/picoftheday/tinystarwars.html'
p3276
sg3263
g5
(S'\x07\xda\x08\t\x10\x05\x04\x06Z@'
p3277
tp3278
Rp3279
sg3267
S'picture of the day - Tiny star wars'
p3280
sa(dp3281
g3261
S'http://health.yahoo.net/news/s/nm/us_puberty_earlier'
p3282
sg3263
g5
(S'\x07\xda\x08\t\x10\x05\x04\x06Y\xfb'
p3283
tp3284
Rp3285
sg3267
S'Puberty coming earlier for U.S. girls: study'
p3286
sa(dp3287
g3261
S'http://www.youtube.com/watch?v=qsU9tz3d3OY'
p3288
sg3263
g5
(S'\x07\xda\x08\t\x10\x05\x04\x06Y0'
p3289
tp3290
Rp3291
sg3267
S'YouTube - Telephone | THE OFFICE VERSION (Lady Gaga and Beyonc\xe9 Spoof) -CompanyQuad.com'
p3292
sa.